(dp1
V2017-10-01
p2
V70.9
p3
sV2018-10-22
p4
V58.8
p5
sV2018-10-23
p6
V59.0
p7
sV2018-10-20
p8
V61.7
p9
sV2018-10-21
p10
V60.3
p11
sV2018-10-26
p12
V56.7
p13
sV2018-10-27
p14
V55.9
p15
sV2018-10-24
p16
V58.1
p17
sV2018-10-25
p18
V57.6
p19
sV2018-10-28
p20
V56.1
p21
sV2018-10-29
p22
V56.1
p23
sV2018-09-08
p24
V77.5
p25
sV2016-09-08
p26
V
sV2016-09-09
p27
V
sV2010-05-08
p28
V56.3
p29
sV2010-05-09
p30
V55.8
p31
sV2010-05-06
p32
V54.5
p33
sV2010-05-07
p34
V55.6
p35
sV2010-05-04
p36
V54.0
p37
sV2010-05-05
p38
V54.1
p39
sV2010-05-02
p40
V52.9
p41
sV2010-05-03
p42
V53.6
p43
sV2016-09-02
p44
V
sV2010-05-01
p45
V52.2
p46
sV2017-08-24
p47
V75.7
p48
sV2017-08-25
p49
V74.7
p50
sV2017-08-26
p51
V74.5
p52
sV2017-08-27
p53
V73.8
p54
sV2016-05-31
p55
V
sV2016-05-30
p56
V
sV2017-08-22
p57
V76.3
p58
sV2017-08-23
p59
V75.7
p60
sV2017-08-28
p61
V73.0
p62
sV2017-08-29
p63
V72.9
p64
sV2014-08-09
p65
V73.8
p66
sV2014-08-08
p67
V74.1
p68
sV2014-08-01
p69
V72.1
p70
sV2014-08-03
p71
V72.0
p72
sV2014-08-02
p73
V71.2
p74
sV2014-08-05
p75
V72.5
p76
sV2014-08-04
p77
V72.1
p78
sV2014-08-07
p79
V73.8
p80
sV2014-08-06
p81
V73.9
p82
sV2011-05-07
p83
V53.4
p84
sV2011-05-06
p85
V53.8
p86
sV2011-05-05
p87
V52.5
p88
sV2011-05-04
p89
V52.0
p90
sV2011-05-03
p91
V51.8
p92
sV2011-05-02
p93
V51.8
p94
sV2011-05-01
p95
V52.7
p96
sV2011-05-09
p97
V52.7
p98
sV2011-05-08
p99
V52.2
p100
sV2018-08-09
p101
V77.7
p102
sV2018-08-08
p103
V77.9
p104
sV2009-10-31
p105
V62.2
p106
sV2009-10-30
p107
V61.7
p108
sV2018-08-05
p109
V77.4
p110
sV2018-08-04
p111
V77.3
p112
sV2018-08-07
p113
V78.0
p114
sV2018-08-06
p115
V76.9
p116
sV2018-08-01
p117
V76.6
p118
sV2018-08-03
p119
V77.2
p120
sV2011-06-30
p121
V72.1
p122
sV2011-10-01
p123
V69.6
p124
sV2011-10-03
p125
V68.5
p126
sV2011-10-02
p127
V69.1
p128
sV2011-10-05
p129
V67.8
p130
sV2011-10-04
p131
V67.8
p132
sV2011-10-07
p133
V66.0
p134
sV2011-10-06
p135
V66.7
p136
sV2011-10-09
p137
V66.6
p138
sV2011-10-08
p139
V66.0
p140
sV2015-06-24
p141
V70.2
p142
sV2013-10-29
p143
V58.8
p144
sV2013-10-28
p145
V59.4
p146
sV2011-08-09
p147
V76.8
p148
sV2013-10-25
p149
V60.8
p150
sV2013-10-24
p151
V62.1
p152
sV2013-10-27
p153
V59.7
p154
sV2013-10-26
p155
V59.9
p156
sV2013-10-21
p157
V64.0
p158
sV2013-10-20
p159
V64.2
p160
sV2013-10-23
p161
V62.4
p162
sV2013-10-22
p163
V63.3
p164
sV2012-07-15
p165
V75.9
p166
sV2012-07-14
p167
V75.2
p168
sV2012-07-17
p169
V75.6
p170
sV2012-07-16
p171
V75.7
p172
sV2012-07-11
p173
V74.5
p174
sV2012-07-10
p175
V74.3
p176
sV2012-07-13
p177
V75.6
p178
sV2012-07-12
p179
V74.7
p180
sV2012-07-19
p181
V73.8
p182
sV2012-07-18
p183
V75.2
p184
sV2017-06-28
p185
V67.6
p186
sV2017-06-29
p187
V68.4
p188
sV2011-08-01
p189
V75.4
p190
sV2016-06-09
p191
V
sV2016-06-08
p192
V
sV2009-06-27
p193
V71.6
p194
sV2009-06-26
p195
V70.9
p196
sV2009-06-25
p197
V71.6
p198
sV2009-06-24
p199
V70.3
p200
sV2008-06-08
p201
V63.9
p202
sV2009-06-22
p203
V70.3
p204
sV2009-06-21
p205
V70.3
p206
sV2009-06-20
p207
V70.0
p208
sV2008-06-04
p209
V61.2
p210
sV2008-06-05
p211
V61.0
p212
sV2008-06-06
p213
V61.3
p214
sV2008-06-07
p215
V62.2
p216
sV2008-06-01
p217
V61.0
p218
sV2009-06-29
p219
V72.0
p220
sV2009-06-28
p221
V71.6
p222
sV2017-06-22
p223
V69.8
p224
sV2017-06-23
p225
V68.7
p226
sV2016-06-07
p227
V
sV2015-05-03
p228
V50.7
p229
sV2015-05-02
p230
V49.8
p231
sV2015-05-01
p232
V49.0
p233
sV2016-06-06
p234
V
sV2015-05-07
p235
V52.9
p236
sV2015-05-06
p237
V52.4
p238
sV2015-05-05
p239
V52.1
p240
sV2015-05-04
p241
V51.6
p242
sV2017-06-26
p243
V69.1
p244
sV2015-05-09
p245
V53.8
p246
sV2015-05-08
p247
V54.0
p248
sV2017-06-24
p249
V68.9
p250
sV2017-06-25
p251
V68.4
p252
sV2008-05-12
p253
V57.2
p254
sV2008-05-13
p255
V57.2
p256
sV2008-05-10
p257
V57.6
p258
sV2008-05-11
p259
V57.9
p260
sV2008-05-16
p261
V58.3
p262
sV2008-05-17
p263
V59.0
p264
sV2008-05-14
p265
V58.1
p266
sV2008-05-15
p267
V58.5
p268
sV2008-05-18
p269
V58.6
p270
sV2008-05-19
p271
V58.6
p272
sV2013-06-30
p273
V71.2
p274
sV2009-05-02
p275
V57.2
p276
sV2009-05-03
p277
V57.9
p278
sV2013-05-30
p279
V59.0
p280
sV2013-05-31
p281
V60.3
p282
sV2018-10-31
p283
V55.8
p284
sV2018-10-30
p285
V55.6
p286
sV2018-09-30
p287
V71.1
p288
sV2016-05-03
p289
V
sV2016-10-08
p290
V68.2
p291
sV2016-10-09
p292
V67.8
p293
sV2016-10-06
p294
V68.4
p295
sV2016-10-07
p296
V68.5
p297
sV2016-10-04
p298
V68.5
p299
sV2016-10-05
p300
V68.5
p301
sV2016-10-02
p302
V68.9
p303
sV2016-10-03
p304
V68.7
p305
sV2016-10-01
p306
V69.6
p307
sV2016-09-13
p308
V
sV2016-09-12
p309
V
sV2016-09-11
p310
V
sV2016-09-10
p311
V
sV2010-05-19
p312
V53.2
p313
sV2010-05-18
p314
V52.9
p315
sV2016-09-15
p316
V
sV2016-09-14
p317
V
sV2010-05-15
p318
V52.5
p319
sV2010-05-14
p320
V51.8
p321
sV2010-05-17
p322
V52.9
p323
sV2010-05-16
p324
V53.1
p325
sV2010-05-11
p326
V52.2
p327
sV2010-05-10
p328
V53.8
p329
sV2010-05-13
p330
V51.3
p331
sV2010-05-12
p332
V50.4
p333
sV2014-07-17
p334
V71.1
p335
sV2008-09-26
p336
V71.6
p337
sV2008-09-25
p338
V72.1
p339
sV2014-07-14
p340
V69.6
p341
sV2014-07-13
p342
V69.4
p343
sV2008-09-22
p344
V72.9
p345
sV2016-05-08
p346
V
sV2016-05-09
p347
V
sV2014-07-11
p348
V69.8
p349
sV2016-05-01
p350
V
sV2016-05-02
p351
V
sV2014-07-10
p352
V70.2
p353
sV2016-05-04
p354
V
sV2016-05-05
p355
V
sV2016-05-06
p356
V
sV2016-05-07
p357
V
sV2016-06-18
p358
V
sV2016-06-19
p359
V
sV2016-06-16
p360
V
sV2016-06-17
p361
V
sV2016-06-14
p362
V
sV2016-06-15
p363
V
sV2014-08-30
p364
V74.3
p365
sV2014-08-31
p366
V74.1
p367
sV2016-06-10
p368
V
sV2016-06-11
p369
V
sV2014-07-19
p370
V71.4
p371
sV2008-09-28
p372
V71.6
p373
sV2018-08-30
p374
V76.9
p375
sV2018-08-31
p376
V76.3
p377
sV2018-08-23
p378
V76.3
p379
sV2015-09-30
p380
V71.1
p381
sV2018-08-22
p382
V76.5
p383
sV2012-05-02
p384
V54.5
p385
sV2011-10-30
p386
V56.1
p387
sV2011-10-31
p388
V55.8
p389
sV2013-10-10
p390
V66.2
p391
sV2012-07-29
p392
V74.8
p393
sV2013-10-12
p394
V65.8
p395
sV2013-10-13
p396
V65.5
p397
sV2013-10-14
p398
V65.3
p399
sV2013-10-15
p400
V65.5
p401
sV2013-10-16
p402
V65.1
p403
sV2013-10-17
p404
V65.5
p405
sV2013-10-18
p406
V65.3
p407
sV2013-10-19
p408
V64.6
p409
sV2012-07-22
p410
V72.7
p411
sV2012-07-23
p412
V73.2
p413
sV2012-07-24
p414
V74.5
p415
sV2012-07-25
p416
V74.7
p417
sV2012-07-26
p418
V74.5
p419
sV2012-07-27
p420
V74.8
p421
sV2018-08-29
p422
V77.1
p423
sV2014-11-01
p424
V59.5
p425
sV2018-08-28
p426
V76.3
p427
sV2012-10-03
p428
V68.4
p429
sV2008-06-13
p430
V68.9
p431
sV2008-06-12
p432
V68.7
p433
sV2008-06-11
p434
V66.4
p435
sV2008-06-10
p436
V65.3
p437
sV2008-06-17
p438
V68.7
p439
sV2008-06-16
p440
V68.5
p441
sV2008-06-15
p442
V68.2
p443
sV2008-06-14
p444
V68.9
p445
sV2008-06-19
p446
V69.4
p447
sV2008-06-18
p448
V68.9
p449
sV2012-10-07
p450
V67.8
p451
sV2012-10-05
p452
V68.7
p453
sV2008-05-01
p454
V55.6
p455
sV2013-06-01
p456
V61.3
p457
sV2013-06-02
p458
V62.4
p459
sV2013-06-03
p460
V63.9
p461
sV2013-06-04
p462
V62.8
p463
sV2013-06-05
p464
V62.1
p465
sV2013-06-06
p466
V62.1
p467
sV2013-06-07
p468
V60.4
p469
sV2013-06-08
p470
V61.3
p471
sV2013-06-09
p472
V63.5
p473
sV2014-07-28
p474
V74.3
p475
sV2014-07-29
p476
V73.9
p477
sV2009-11-01
p478
V61.9
p479
sV2008-09-17
p480
V74.2
p481
sV2014-07-24
p482
V73.9
p483
sV2014-07-25
p484
V74.3
p485
sV2014-07-22
p486
V72.7
p487
sV2008-09-13
p488
V75.2
p489
sV2014-07-20
p490
V70.9
p491
sV2014-07-21
p492
V72.9
p493
sV2013-05-29
p494
V58.6
p495
sV2013-05-28
p496
V58.6
p497
sV2013-05-27
p498
V58.6
p499
sV2013-05-26
p500
V59.5
p501
sV2013-05-25
p502
V59.2
p503
sV2013-05-24
p504
V59.4
p505
sV2013-05-23
p506
V59.5
p507
sV2013-05-22
p508
V58.3
p509
sV2013-05-21
p510
V58.3
p511
sV2013-05-20
p512
V58.3
p513
sV2018-10-04
p514
V71.1
p515
sV2018-10-05
p516
V70.9
p517
sV2018-10-06
p518
V70.3
p519
sV2018-10-07
p520
V70.7
p521
sV2018-10-01
p522
V70.5
p523
sV2018-10-02
p524
V70.7
p525
sV2018-10-03
p526
V70.9
p527
sV2018-10-08
p528
V70.3
p529
sV2018-10-09
p530
V70.5
p531
sV2016-09-04
p532
V
sV2012-07-31
p533
V75.4
p534
sV2016-09-05
p535
V
sV2012-07-30
p536
V75.6
p537
sV2016-09-06
p538
V
sV2016-09-07
p539
V
sV2016-09-01
p540
V
sV2016-10-19
p541
V65.7
p542
sV2016-10-18
p543
V65.1
p544
sV2016-10-15
p545
V65.3
p546
sV2016-10-14
p547
V65.7
p548
sV2016-10-17
p549
V65.1
p550
sV2016-09-03
p551
V
sV2016-10-11
p552
V66.6
p553
sV2016-10-10
p554
V67.1
p555
sV2016-10-13
p556
V66.0
p557
sV2016-10-12
p558
V66.0
p559
sV2010-05-20
p560
V53.8
p561
sV2010-05-21
p562
V54.9
p563
sV2010-05-22
p564
V56.5
p565
sV2010-05-23
p566
V57.2
p567
sV2010-05-24
p568
V58.3
p569
sV2010-05-25
p570
V59.5
p571
sV2010-05-26
p572
V60.4
p573
sV2010-05-27
p574
V61.0
p575
sV2010-05-28
p576
V61.5
p577
sV2010-05-29
p578
V61.5
p579
sV2008-10-30
p580
V59.5
p581
sV2008-10-31
p582
V59.7
p583
sV2016-05-19
p584
V
sV2016-05-18
p585
V
sV2016-05-17
p586
V
sV2016-05-16
p587
V
sV2016-05-15
p588
V
sV2016-05-14
p589
V
sV2016-05-13
p590
V
sV2016-05-12
p591
V
sV2016-05-11
p592
V
sV2016-05-10
p593
V
sV2014-08-23
p594
V73.0
p595
sV2014-08-22
p596
V73.2
p597
sV2014-08-21
p598
V74.1
p599
sV2014-08-20
p600
V73.6
p601
sV2014-08-27
p602
V75.6
p603
sV2014-08-26
p604
V75.0
p605
sV2014-08-25
p606
V73.9
p607
sV2014-08-24
p608
V73.2
p609
sV2016-06-05
p610
V
sV2016-06-04
p611
V
sV2014-08-29
p612
V74.5
p613
sV2014-08-28
p614
V75.2
p615
sV2016-06-01
p616
V
sV2017-06-27
p617
V68.2
p618
sV2016-06-03
p619
V
sV2016-06-02
p620
V
sV2018-08-27
p621
V76.9
p622
sV2018-08-26
p623
V77.3
p624
sV2018-08-25
p625
V76.5
p626
sV2018-08-24
p627
V76.3
p628
sV2015-09-29
p629
V71.4
p630
sV2015-09-28
p631
V71.1
p632
sV2018-08-21
p633
V76.7
p634
sV2018-08-20
p635
V76.7
p636
sV2015-09-25
p637
V72.0
p638
sV2015-09-24
p639
V72.0
p640
sV2015-09-27
p641
V70.7
p642
sV2015-09-26
p643
V71.4
p644
sV2015-09-21
p645
V72.7
p646
sV2015-09-20
p647
V73.4
p648
sV2015-09-23
p649
V72.3
p650
sV2015-09-22
p651
V72.0
p652
sV2011-08-26
p653
V73.4
p654
sV2011-08-27
p655
V71.8
p656
sV2011-08-24
p657
V73.4
p658
sV2011-08-25
p659
V72.7
p660
sV2011-08-22
p661
V74.1
p662
sV2011-08-23
p663
V73.6
p664
sV2011-08-20
p665
V74.8
p666
sV2011-08-21
p667
V75.4
p668
sV2011-08-28
p669
V71.4
p670
sV2011-08-29
p671
V75.6
p672
sV2017-11-01
p673
V62.1
p674
sV2013-10-07
p675
V67.5
p676
sV2013-10-06
p677
V67.6
p678
sV2013-10-05
p679
V67.8
p680
sV2013-10-04
p681
V67.6
p682
sV2013-10-03
p683
V67.3
p684
sV2013-10-02
p685
V67.1
p686
sV2013-10-01
p687
V66.7
p688
sV2013-10-09
p689
V66.9
p690
sV2013-10-08
p691
V67.5
p692
sV2015-06-02
p693
V59.5
p694
sV2015-06-03
p695
V60.3
p696
sV2011-10-29
p697
V57.2
p698
sV2015-06-01
p699
V60.6
p700
sV2015-06-06
p701
V61.0
p702
sV2015-06-07
p703
V62.1
p704
sV2015-06-04
p705
V60.3
p706
sV2015-06-05
p707
V60.6
p708
sV2011-10-23
p709
V62.2
p710
sV2011-10-22
p711
V62.0
p712
sV2011-10-21
p713
V62.6
p714
sV2015-06-09
p715
V62.8
p716
sV2011-10-27
p717
V59.0
p718
sV2011-10-26
p719
V59.7
p720
sV2011-10-25
p721
V60.6
p722
sV2011-10-24
p723
V61.2
p724
sV2013-06-17
p725
V65.3
p726
sV2013-06-16
p727
V65.5
p728
sV2013-06-15
p729
V65.7
p730
sV2013-06-14
p731
V64.9
p732
sV2008-05-30
p733
V61.2
p734
sV2013-06-12
p735
V66.6
p736
sV2013-06-11
p737
V66.4
p738
sV2013-06-10
p739
V63.3
p740
sV2013-06-19
p741
V67.3
p742
sV2013-06-18
p743
V67.3
p744
sV2012-09-26
p745
V69.6
p746
sV2012-09-27
p747
V69.8
p748
sV2012-09-24
p749
V70.2
p750
sV2011-10-28
p751
V58.5
p752
sV2012-09-22
p753
V70.5
p754
sV2012-09-23
p755
V70.3
p756
sV2012-09-20
p757
V69.8
p758
sV2012-09-21
p759
V70.3
p760
sV2008-09-05
p761
V77.5
p762
sV2008-09-04
p763
V77.2
p764
sV2008-09-07
p765
V78.4
p766
sV2008-09-06
p767
V77.9
p768
sV2014-07-31
p769
V72.9
p770
sV2014-07-30
p771
V73.0
p772
sV2012-09-28
p773
V69.4
p774
sV2012-09-29
p775
V69.3
p776
sV2015-06-08
p777
V62.1
p778
sV2011-10-20
p779
V63.3
p780
sV2017-09-30
p781
V72.0
p782
sV2014-10-28
p783
V60.2
p784
sV2012-06-06
p785
V66.7
p786
sV2014-10-26
p787
V60.8
p788
sV2012-06-08
p789
V67.6
p790
sV2008-08-11
p791
V77.5
p792
sV2009-05-27
p793
V62.6
p794
sV2009-05-24
p795
V62.6
p796
sV2016-10-20
p797
V65.5
p798
sV2016-10-21
p799
V65.8
p800
sV2016-10-22
p801
V65.5
p802
sV2008-08-12
p803
V76.8
p804
sV2016-10-24
p805
V63.9
p806
sV2016-10-25
p807
V62.8
p808
sV2016-10-26
p809
V61.7
p810
sV2016-10-27
p811
V60.6
p812
sV2016-10-28
p813
V60.3
p814
sV2008-08-15
p815
V76.3
p816
sV2018-10-11
p817
V70.7
p818
sV2018-10-10
p819
V70.7
p820
sV2018-10-17
p821
V66.2
p822
sV2018-10-16
p823
V66.9
p824
sV2018-10-15
p825
V67.6
p826
sV2008-08-14
p827
V77.2
p828
sV2008-08-17
p829
V76.5
p830
sV2009-05-21
p831
V62.2
p832
sV2010-05-31
p833
V63.7
p834
sV2010-05-30
p835
V63.5
p836
sV2008-10-21
p837
V64.8
p838
sV2008-10-20
p839
V65.4
p840
sV2008-10-23
p841
V63.3
p842
sV2008-10-22
p843
V64.2
p844
sV2008-10-25
p845
V62.5
p846
sV2008-10-24
p847
V62.6
p848
sV2008-10-27
p849
V62.7
p850
sV2008-10-26
p851
V62.8
p852
sV2008-10-29
p853
V60.1
p854
sV2008-10-28
p855
V61.2
p856
sV2013-06-13
p857
V66.0
p858
sV2008-05-31
p859
V60.4
p860
sV2016-06-30
p861
V
sV2018-09-11
p862
V74.1
p863
sV2018-09-10
p864
V74.7
p865
sV2017-06-30
p866
V67.5
p867
sV2018-09-13
p868
V74.0
p869
sV2018-09-12
p870
V74.2
p871
sV2018-09-15
p872
V74.2
p873
sV2013-08-25
p874
V72.3
p875
sV2018-09-17
p876
V74.5
p877
sV2018-09-16
p878
V74.5
p879
sV2018-09-19
p880
V74.9
p881
sV2018-09-18
p882
V75.0
p883
sV2015-09-10
p884
V77.2
p885
sV2015-09-11
p886
V76.8
p887
sV2015-09-12
p888
V75.9
p889
sV2015-09-13
p890
V76.1
p891
sV2015-09-14
p892
V75.0
p893
sV2015-09-15
p894
V74.7
p895
sV2015-09-16
p896
V74.8
p897
sV2015-09-17
p898
V74.3
p899
sV2015-09-18
p900
V74.1
p901
sV2015-09-19
p902
V73.6
p903
sV2008-09-08
p904
V78.1
p905
sV2011-08-31
p906
V75.0
p907
sV2011-08-30
p908
V75.6
p909
sV2009-08-30
p910
V78.1
p911
sV2009-08-31
p912
V77.4
p913
sV2008-09-01
p914
V76.3
p915
sV2016-10-29
p916
V59.5
p917
sV2008-09-03
p918
V76.8
p919
sV2008-09-02
p920
V76.6
p921
sV2017-06-09
p922
V62.8
p923
sV2015-06-11
p924
V64.4
p925
sV2015-06-10
p926
V63.9
p927
sV2012-05-28
p928
V65.3
p929
sV2012-05-29
p930
V66.7
p931
sV2015-06-15
p932
V67.6
p933
sV2015-06-14
p934
V68.4
p935
sV2015-06-17
p936
V68.2
p937
sV2015-06-16
p938
V67.5
p939
sV2012-05-22
p940
V61.5
p941
sV2012-05-23
p942
V61.9
p943
sV2012-05-20
p944
V60.4
p945
sV2012-05-21
p946
V60.8
p947
sV2012-05-26
p948
V63.9
p949
sV2012-05-27
p950
V64.8
p951
sV2012-05-24
p952
V62.8
p953
sV2012-05-25
p954
V63.5
p955
sV2008-05-29
p956
V59.0
p957
sV2008-05-28
p958
V59.5
p959
sV2008-05-23
p960
V58.6
p961
sV2008-05-22
p962
V57.7
p963
sV2008-05-21
p964
V59.0
p965
sV2008-05-20
p966
V57.9
p967
sV2008-05-27
p968
V58.3
p969
sV2008-05-26
p970
V57.7
p971
sV2008-05-25
p972
V57.9
p973
sV2008-05-24
p974
V58.1
p975
sV2008-09-30
p976
V72.3
p977
sV2014-07-01
p978
V72.1
p979
sV2014-07-02
p980
V72.0
p981
sV2014-07-03
p982
V72.5
p983
sV2014-07-04
p984
V72.3
p985
sV2012-09-30
p986
V68.9
p987
sV2014-07-06
p988
V69.3
p989
sV2014-07-07
p990
V70.2
p991
sV2014-07-08
p992
V71.2
p993
sV2014-07-09
p994
V70.2
p995
sV2018-08-02
p996
V77.0
p997
sV2012-09-25
p998
V70.0
p999
sV2009-10-20
p1000
V60.4
p1001
sV2016-10-31
p1002
V59.2
p1003
sV2016-10-30
p1004
V59.5
p1005
sV2009-10-21
p1006
V60.6
p1007
sV2008-10-14
p1008
V68.4
p1009
sV2008-10-15
p1010
V68.4
p1011
sV2008-10-16
p1012
V68.4
p1013
sV2008-10-17
p1014
V67.8
p1015
sV2008-10-10
p1016
V68.2
p1017
sV2008-10-11
p1018
V68.4
p1019
sV2008-10-12
p1020
V68.4
p1021
sV2008-10-13
p1022
V68.2
p1023
sV2008-10-18
p1024
V67.1
p1025
sV2008-10-19
p1026
V66.0
p1027
sV2016-06-27
p1028
V
sV2016-06-26
p1029
V
sV2016-06-25
p1030
V
sV2016-06-24
p1031
V
sV2016-06-23
p1032
V
sV2016-06-22
p1033
V
sV2016-06-21
p1034
V
sV2016-06-20
p1035
V
sV2017-06-04
p1036
V62.8
p1037
sV2017-06-05
p1038
V62.4
p1039
sV2017-06-06
p1040
V61.7
p1041
sV2017-06-07
p1042
V61.5
p1043
sV2017-06-01
p1044
V61.5
p1045
sV2016-06-29
p1046
V
sV2016-06-28
p1047
V
sV2017-05-12
p1048
V55.6
p1049
sV2017-05-13
p1050
V54.9
p1051
sV2017-05-10
p1052
V55.6
p1053
sV2017-05-11
p1054
V55.6
p1055
sV2017-05-16
p1056
V56.3
p1057
sV2017-05-17
p1058
V56.5
p1059
sV2017-05-14
p1060
V56.1
p1061
sV2017-05-15
p1062
V56.3
p1063
sV2017-05-18
p1064
V56.8
p1065
sV2017-05-19
p1066
V56.8
p1067
sV2015-09-07
p1068
V76.8
p1069
sV2015-09-06
p1070
V76.3
p1071
sV2015-09-05
p1072
V76.1
p1073
sV2015-09-04
p1074
V76.1
p1075
sV2015-09-03
p1076
V76.1
p1077
sV2015-09-02
p1078
V75.6
p1079
sV2015-09-01
p1080
V75.7
p1081
sV2015-09-09
p1082
V77.7
p1083
sV2015-09-08
p1084
V77.4
p1085
sV2009-08-29
p1086
V78.3
p1087
sV2009-08-28
p1088
V79.0
p1089
sV2009-08-25
p1090
V80.2
p1091
sV2009-08-24
p1092
V80.1
p1093
sV2009-08-27
p1094
V79.5
p1095
sV2009-08-26
p1096
V80.0
p1097
sV2009-08-21
p1098
V80.4
p1099
sV2009-08-20
p1100
V80.2
p1101
sV2009-08-23
p1102
V79.7
p1103
sV2009-08-22
p1104
V79.9
p1105
sV2018-06-30
p1106
V70.9
p1107
sV2011-08-08
p1108
V76.1
p1109
sV2015-06-25
p1110
V69.8
p1111
sV2015-06-26
p1112
V70.9
p1113
sV2015-06-27
p1114
V69.6
p1115
sV2015-06-20
p1116
V67.8
p1117
sV2015-06-21
p1118
V69.4
p1119
sV2015-06-22
p1120
V69.1
p1121
sV2015-06-23
p1122
V70.2
p1123
sV2012-05-31
p1124
V68.2
p1125
sV2012-05-30
p1126
V66.4
p1127
sV2011-08-02
p1128
V75.7
p1129
sV2011-08-03
p1130
V75.4
p1131
sV2015-06-28
p1132
V67.8
p1133
sV2011-08-05
p1134
V75.4
p1135
sV2011-08-06
p1136
V75.7
p1137
sV2011-08-07
p1138
V75.9
p1139
sV2009-07-02
p1140
V73.8
p1141
sV2009-07-03
p1142
V73.4
p1143
sV2009-07-01
p1144
V73.0
p1145
sV2009-07-06
p1146
V72.5
p1147
sV2009-07-07
p1148
V72.1
p1149
sV2009-07-04
p1150
V73.6
p1151
sV2009-07-05
p1152
V72.7
p1153
sV2009-07-08
p1154
V72.0
p1155
sV2009-07-09
p1156
V71.4
p1157
sV2012-09-08
p1158
V77.0
p1159
sV2012-09-09
p1160
V76.6
p1161
sV2012-09-01
p1162
V77.0
p1163
sV2012-09-02
p1164
V76.8
p1165
sV2012-09-03
p1166
V76.3
p1167
sV2012-09-04
p1168
V76.3
p1169
sV2012-09-05
p1170
V76.3
p1171
sV2012-09-06
p1172
V76.3
p1173
sV2012-09-07
p1174
V76.6
p1175
sV2008-09-27
p1176
V71.5
p1177
sV2014-07-16
p1178
V70.2
p1179
sV2014-07-15
p1180
V69.6
p1181
sV2008-09-24
p1182
V73.2
p1183
sV2008-09-23
p1184
V72.7
p1185
sV2014-07-12
p1186
V69.8
p1187
sV2008-09-21
p1188
V72.8
p1189
sV2008-09-20
p1190
V72.9
p1191
sV2008-09-29
p1192
V71.7
p1193
sV2014-07-18
p1194
V70.5
p1195
sV2014-06-03
p1196
V62.4
p1197
sV2012-10-08
p1198
V67.1
p1199
sV2012-10-09
p1200
V66.7
p1201
sV2014-06-02
p1202
V63.1
p1203
sV2012-10-02
p1204
V68.0
p1205
sV2009-06-23
p1206
V70.3
p1207
sV2012-10-01
p1208
V68.4
p1209
sV2012-10-06
p1210
V69.3
p1211
sV2012-08-16
p1212
V75.4
p1213
sV2012-10-04
p1214
V68.4
p1215
sV2008-06-09
p1216
V64.8
p1217
sV2017-08-02
p1218
V75.7
p1219
sV2017-08-03
p1220
V75.7
p1221
sV2014-06-07
p1222
V63.9
p1223
sV2012-08-11
p1224
V77.2
p1225
sV2017-08-01
p1226
V74.5
p1227
sV2014-06-05
p1228
V62.9
p1229
sV2017-08-06
p1230
V75.2
p1231
sV2014-06-04
p1232
V62.7
p1233
sV2017-08-07
p1234
V74.1
p1235
sV2017-08-04
p1236
V76.5
p1237
sV2016-08-06
p1238
V
sV2017-08-05
p1239
V75.6
p1240
sV2008-06-02
p1241
V61.3
p1242
sV2008-06-03
p1243
V61.5
p1244
sV2017-08-08
p1245
V73.6
p1246
sV2017-08-09
p1247
V73.6
p1248
sV2010-07-22
p1249
V77.9
p1250
sV2010-07-23
p1251
V76.8
p1252
sV2010-07-20
p1253
V77.4
p1254
sV2010-07-21
p1255
V78.1
p1256
sV2010-07-26
p1257
V76.1
p1258
sV2010-07-27
p1259
V75.9
p1260
sV2010-07-24
p1261
V77.0
p1262
sV2010-07-25
p1263
V76.8
p1264
sV2010-07-28
p1265
V74.5
p1266
sV2010-07-29
p1267
V73.9
p1268
sV2013-07-30
p1269
V74.5
p1270
sV2013-07-31
p1271
V74.1
p1272
sV2011-07-12
p1273
V75.0
p1274
sV2011-07-13
p1275
V74.5
p1276
sV2011-07-10
p1277
V73.4
p1278
sV2011-07-11
p1279
V74.7
p1280
sV2011-07-16
p1281
V73.0
p1282
sV2011-07-17
p1283
V73.0
p1284
sV2011-07-14
p1285
V73.9
p1286
sV2011-07-15
p1287
V73.0
p1288
sV2011-07-18
p1289
V74.3
p1290
sV2011-07-19
p1291
V73.2
p1292
sV2008-10-09
p1293
V68.0
p1294
sV2008-10-08
p1295
V68.0
p1296
sV2008-10-03
p1297
V70.1
p1298
sV2008-10-02
p1299
V71.1
p1300
sV2008-10-01
p1301
V71.6
p1302
sV2008-10-07
p1303
V68.1
p1304
sV2008-10-06
p1305
V69.1
p1306
sV2008-10-05
p1307
V69.4
p1308
sV2008-10-04
p1309
V69.9
p1310
sV2017-09-16
p1311
V
sV2008-09-09
p1312
V77.5
p1313
sV2017-06-13
p1314
V66.7
p1315
sV2017-06-12
p1316
V65.3
p1317
sV2017-06-11
p1318
V64.2
p1319
sV2017-06-10
p1320
V63.5
p1321
sV2017-06-17
p1322
V65.3
p1323
sV2017-06-16
p1324
V64.9
p1325
sV2017-06-15
p1326
V66.7
p1327
sV2017-06-14
p1328
V66.0
p1329
sV2017-06-19
p1330
V66.9
p1331
sV2017-06-18
p1332
V65.8
p1333
sV2018-08-19
p1334
V76.8
p1335
sV2018-08-16
p1336
V76.9
p1337
sV2017-05-01
p1338
V53.6
p1339
sV2017-05-03
p1340
V54.9
p1341
sV2017-05-02
p1342
V54.5
p1343
sV2017-05-05
p1344
V55.0
p1345
sV2017-05-04
p1346
V56.7
p1347
sV2017-05-07
p1348
V55.6
p1349
sV2017-05-06
p1350
V55.4
p1351
sV2017-05-09
p1352
V55.8
p1353
sV2017-05-08
p1354
V55.9
p1355
sV2018-08-17
p1356
V77.2
p1357
sV2016-10-23
p1358
V64.4
p1359
sV2017-09-18
p1360
V
sV2017-09-19
p1361
V
sV2016-11-01
p1362
V59.0
p1363
sV2017-09-17
p1364
V
sV2017-09-14
p1365
V
sV2017-09-15
p1366
V
sV2017-09-12
p1367
V
sV2017-09-13
p1368
V
sV2017-09-10
p1369
V
sV2017-09-11
p1370
V
sV2009-08-10
p1371
V75.4
p1372
sV2009-08-11
p1373
V75.7
p1374
sV2009-08-12
p1375
V75.4
p1376
sV2009-08-13
p1377
V75.6
p1378
sV2009-08-14
p1379
V76.3
p1380
sV2009-08-15
p1381
V76.6
p1382
sV2009-08-16
p1383
V78.1
p1384
sV2009-08-17
p1385
V79.3
p1386
sV2009-08-18
p1387
V79.3
p1388
sV2009-08-19
p1389
V79.7
p1390
sV2018-08-14
p1391
V75.5
p1392
sV2018-10-13
p1393
V69.1
p1394
sV2013-08-08
p1395
V72.1
p1396
sV2013-08-09
p1397
V72.5
p1398
sV2013-08-06
p1399
V73.4
p1400
sV2013-08-07
p1401
V72.5
p1402
sV2013-08-04
p1403
V73.8
p1404
sV2013-08-05
p1405
V73.0
p1406
sV2013-08-02
p1407
V74.3
p1408
sV2013-08-03
p1409
V73.8
p1410
sV2013-08-01
p1411
V74.5
p1412
sV2017-07-10
p1413
V71.6
p1414
sV2017-07-11
p1415
V71.1
p1416
sV2017-07-12
p1417
V72.1
p1418
sV2017-07-13
p1419
V72.7
p1420
sV2017-07-14
p1421
V72.1
p1422
sV2018-10-14
p1423
V68.5
p1424
sV2017-07-15
p1425
V72.0
p1426
sV2017-07-16
p1427
V73.0
p1428
sV2017-07-17
p1429
V73.4
p1430
sV2018-06-29
p1431
V70.1
p1432
sV2018-06-28
p1433
V69.7
p1434
sV2017-07-19
p1435
V75.7
p1436
sV2018-06-25
p1437
V69.0
p1438
sV2018-06-24
p1439
V69.2
p1440
sV2018-06-27
p1441
V68.9
p1442
sV2018-06-26
p1443
V69.7
p1444
sV2018-06-21
p1445
V67.3
p1446
sV2018-06-20
p1447
V66.9
p1448
sV2018-06-23
p1449
V67.8
p1450
sV2018-06-22
p1451
V68.2
p1452
sV2014-07-27
p1453
V73.8
p1454
sV2015-06-30
p1455
V68.9
p1456
sV2012-05-08
p1457
V56.1
p1458
sV2012-05-09
p1459
V56.7
p1460
sV2011-08-19
p1461
V74.7
p1462
sV2011-08-18
p1463
V74.7
p1464
sV2011-08-17
p1465
V75.2
p1466
sV2011-08-16
p1467
V73.9
p1468
sV2011-08-15
p1469
V74.1
p1470
sV2012-05-07
p1471
V56.5
p1472
sV2011-08-13
p1473
V76.3
p1474
sV2011-08-12
p1475
V76.1
p1476
sV2011-08-11
p1477
V76.6
p1478
sV2011-08-10
p1479
V77.2
p1480
sV2009-07-11
p1481
V71.6
p1482
sV2009-07-10
p1483
V71.8
p1484
sV2009-07-13
p1485
V72.3
p1486
sV2009-07-12
p1487
V71.8
p1488
sV2009-07-15
p1489
V72.3
p1490
sV2009-07-14
p1491
V71.9
p1492
sV2009-07-17
p1493
V72.1
p1494
sV2009-07-16
p1495
V72.5
p1496
sV2009-07-19
p1497
V73.6
p1498
sV2009-07-18
p1499
V73.8
p1500
sV2018-09-14
p1501
V74.1
p1502
sV2012-09-19
p1503
V71.1
p1504
sV2012-09-18
p1505
V70.7
p1506
sV2012-09-17
p1507
V72.0
p1508
sV2012-09-16
p1509
V72.3
p1510
sV2012-09-15
p1511
V73.0
p1512
sV2012-09-14
p1513
V73.2
p1514
sV2012-09-13
p1515
V73.9
p1516
sV2012-09-12
p1517
V74.1
p1518
sV2012-09-11
p1519
V75.4
p1520
sV2012-09-10
p1521
V76.3
p1522
sV2015-10-16
p1523
V64.6
p1524
sV2015-10-17
p1525
V64.0
p1526
sV2015-10-14
p1527
V65.5
p1528
sV2015-10-15
p1529
V64.9
p1530
sV2015-10-12
p1531
V65.5
p1532
sV2015-10-13
p1533
V65.5
p1534
sV2015-10-10
p1535
V65.7
p1536
sV2011-11-01
p1537
V55.4
p1538
sV2015-10-18
p1539
V62.4
p1540
sV2015-10-19
p1541
V61.9
p1542
sV2012-10-19
p1543
V60.4
p1544
sV2012-10-18
p1545
V61.0
p1546
sV2012-10-11
p1547
V65.1
p1548
sV2012-10-10
p1549
V66.4
p1550
sV2012-10-13
p1551
V64.0
p1552
sV2012-10-12
p1553
V64.2
p1554
sV2012-10-15
p1555
V63.1
p1556
sV2012-10-14
p1557
V63.3
p1558
sV2012-10-17
p1559
V62.1
p1560
sV2012-10-16
p1561
V62.8
p1562
sV2017-10-30
p1563
V64.0
p1564
sV2017-10-31
p1565
V62.6
p1566
sV2010-07-31
p1567
V73.2
p1568
sV2010-07-30
p1569
V73.8
p1570
sV2017-06-20
p1571
V68.7
p1572
sV2013-07-21
p1573
V76.6
p1574
sV2013-07-20
p1575
V77.0
p1576
sV2013-07-23
p1577
V76.6
p1578
sV2013-07-22
p1579
V75.9
p1580
sV2013-07-25
p1581
V75.2
p1582
sV2013-07-24
p1583
V76.5
p1584
sV2013-07-27
p1585
V74.5
p1586
sV2013-07-26
p1587
V
sV2013-07-29
p1588
V74.7
p1589
sV2013-07-28
p1590
V74.5
p1591
sV2017-06-21
p1592
V69.4
p1593
sV2011-07-01
p1594
V72.1
p1595
sV2011-07-03
p1596
V71.2
p1597
sV2011-07-02
p1598
V72.5
p1599
sV2011-07-05
p1600
V71.6
p1601
sV2011-07-04
p1602
V71.2
p1603
sV2011-07-07
p1604
V72.3
p1605
sV2011-07-06
p1606
V72.0
p1607
sV2011-07-09
p1608
V72.3
p1609
sV2011-07-08
p1610
V72.9
p1611
sV2018-10-19
p1612
V62.4
p1613
sV2018-10-18
p1614
V64.8
p1615
sV2017-05-30
p1616
V60.3
p1617
sV2017-05-31
p1618
V60.8
p1619
sV2012-06-12
p1620
V68.0
p1621
sV2012-06-13
p1622
V68.7
p1623
sV2012-06-10
p1624
V68.0
p1625
sV2012-06-11
p1626
V68.2
p1627
sV2012-06-16
p1628
V70.3
p1629
sV2012-06-17
p1630
V69.8
p1631
sV2012-06-14
p1632
V69.4
p1633
sV2012-06-15
p1634
V69.4
p1635
sV2017-09-05
p1636
V71.4
p1637
sV2017-09-04
p1638
V71.6
p1639
sV2012-06-18
p1640
V70.7
p1641
sV2012-06-19
p1642
V70.3
p1643
sV2017-09-01
p1644
V72.1
p1645
sV2017-09-03
p1646
V71.1
p1647
sV2017-09-02
p1648
V71.8
p1649
sV2009-08-07
p1650
V77.0
p1651
sV2009-08-06
p1652
V77.4
p1653
sV2015-08-28
p1654
V76.5
p1655
sV2009-08-04
p1656
V77.9
p1657
sV2009-08-03
p1658
V78.8
p1659
sV2009-08-02
p1660
V78.3
p1661
sV2009-08-01
p1662
V79.2
p1663
sV2015-08-22
p1664
V76.5
p1665
sV2015-08-23
p1666
V76.3
p1667
sV2015-08-20
p1668
V75.9
p1669
sV2015-08-21
p1670
V75.9
p1671
sV2015-08-26
p1672
V77.2
p1673
sV2015-08-27
p1674
V76.6
p1675
sV2009-08-09
p1676
V76.1
p1677
sV2015-08-25
p1678
V77.4
p1679
sV2018-09-02
p1680
V76.3
p1681
sV2018-09-03
p1682
V76.2
p1683
sV2018-09-01
p1684
V75.8
p1685
sV2013-08-19
p1686
V71.6
p1687
sV2013-08-18
p1688
V72.1
p1689
sV2018-09-04
p1690
V77.0
p1691
sV2018-09-05
p1692
V78.6
p1693
sV2013-08-15
p1694
V72.3
p1695
sV2013-08-14
p1696
V72.5
p1697
sV2013-08-17
p1698
V73.0
p1699
sV2013-08-16
p1700
V72.1
p1701
sV2013-08-11
p1702
V73.6
p1703
sV2013-08-10
p1704
V73.4
p1705
sV2013-08-13
p1706
V72.7
p1707
sV2013-08-12
p1708
V73.4
p1709
sV2008-09-16
p1710
V74.7
p1711
sV2018-06-10
p1712
V65.4
p1713
sV2012-05-04
p1714
V54.9
p1715
sV2018-06-12
p1716
V65.4
p1717
sV2018-06-13
p1718
V65.0
p1719
sV2018-06-14
p1720
V66.0
p1721
sV2018-06-15
p1722
V65.4
p1723
sV2018-06-16
p1724
V65.1
p1725
sV2012-05-05
p1726
V55.0
p1727
sV2018-06-18
p1728
V66.4
p1729
sV2018-06-19
p1730
V66.7
p1731
sV2012-05-06
p1732
V56.1
p1733
sV2011-08-14
p1734
V74.7
p1735
sV2012-05-01
p1736
V54.7
p1737
sV2012-05-13
p1738
V57.7
p1739
sV2012-05-12
p1740
V57.7
p1741
sV2012-05-11
p1742
V57.2
p1743
sV2012-05-10
p1744
V57.2
p1745
sV2012-05-17
p1746
V60.3
p1747
sV2012-05-16
p1748
V59.2
p1749
sV2012-05-15
p1750
V59.0
p1751
sV2012-05-14
p1752
V58.6
p1753
sV2012-05-19
p1754
V60.4
p1755
sV2012-05-18
p1756
V59.5
p1757
sV2009-07-24
p1758
V72.9
p1759
sV2009-07-25
p1760
V73.6
p1761
sV2009-07-26
p1762
V74.5
p1763
sV2009-07-27
p1764
V75.4
p1765
sV2009-07-20
p1766
V73.2
p1767
sV2009-07-21
p1768
V72.3
p1769
sV2009-07-22
p1770
V73.4
p1771
sV2009-07-23
p1772
V72.7
p1773
sV2009-07-28
p1774
V76.1
p1775
sV2009-07-29
p1776
V76.8
p1777
sV2013-11-01
p1778
V58.6
p1779
sV2015-10-05
p1780
V65.7
p1781
sV2015-10-04
p1782
V66.4
p1783
sV2015-10-07
p1784
V65.7
p1785
sV2015-10-06
p1786
V65.5
p1787
sV2015-10-01
p1788
V70.3
p1789
sV2015-10-03
p1790
V67.3
p1791
sV2015-10-02
p1792
V68.9
p1793
sV2015-10-09
p1794
V65.7
p1795
sV2015-10-08
p1796
V65.8
p1797
sV2012-10-28
p1798
V60.1
p1799
sV2012-10-29
p1800
V59.7
p1801
sV2012-10-24
p1802
V61.5
p1803
sV2012-10-25
p1804
V61.0
p1805
sV2012-10-26
p1806
V61.0
p1807
sV2012-10-27
p1808
V60.6
p1809
sV2012-10-20
p1810
V61.9
p1811
sV2012-10-21
p1812
V61.7
p1813
sV2012-10-22
p1814
V61.7
p1815
sV2012-10-23
p1816
V61.5
p1817
sV2017-10-21
p1818
V65.8
p1819
sV2017-10-20
p1820
V65.8
p1821
sV2017-10-23
p1822
V65.3
p1823
sV2017-10-22
p1824
V65.1
p1825
sV2017-10-25
p1826
V65.7
p1827
sV2017-10-24
p1828
V65.3
p1829
sV2017-10-27
p1830
V64.8
p1831
sV2017-10-26
p1832
V65.3
p1833
sV2017-10-29
p1834
V64.4
p1835
sV2017-10-28
p1836
V64.4
p1837
sV2014-06-30
p1838
V72.5
p1839
sV2008-07-30
p1840
V78.1
p1841
sV2008-07-31
p1842
V77.7
p1843
sV2008-06-23
p1844
V69.6
p1845
sV2010-07-04
p1846
V69.6
p1847
sV2010-07-05
p1848
V70.2
p1849
sV2010-07-06
p1850
V69.8
p1851
sV2010-07-07
p1852
V73.6
p1853
sV2010-07-01
p1854
V71.2
p1855
sV2010-07-02
p1856
V70.0
p1857
sV2010-07-03
p1858
V70.0
p1859
sV2010-07-08
p1860
V72.1
p1861
sV2010-07-09
p1862
V72.1
p1863
sV2013-07-14
p1864
V70.5
p1865
sV2013-07-15
p1866
V71.8
p1867
sV2013-07-16
p1868
V72.3
p1869
sV2013-07-17
p1870
V73.4
p1871
sV2013-07-10
p1872
V72.5
p1873
sV2013-07-11
p1874
V72.5
p1875
sV2013-07-12
p1876
V69.6
p1877
sV2013-07-13
p1878
V69.8
p1879
sV2013-07-18
p1880
V76.3
p1881
sV2013-07-19
p1882
V76.6
p1883
sV2009-06-06
p1884
V66.0
p1885
sV2011-07-30
p1886
V74.5
p1887
sV2011-07-31
p1888
V75.6
p1889
sV2009-06-01
p1890
V65.1
p1891
sV2016-08-30
p1892
V
sV2016-08-31
p1893
V
sV2008-06-24
p1894
V69.6
p1895
sV2009-06-02
p1896
V66.7
p1897
sV2018-07-22
p1898
V73.5
p1899
sV2018-07-23
p1900
V74.7
p1901
sV2018-07-20
p1902
V73.6
p1903
sV2013-05-16
p1904
V57.0
p1905
sV2018-07-21
p1906
V73.5
p1907
sV2013-05-17
p1908
V56.7
p1909
sV2018-07-26
p1910
V76.7
p1911
sV2018-07-27
p1912
V77.8
p1913
sV2017-05-29
p1914
V60.1
p1915
sV2017-05-28
p1916
V59.9
p1917
sV2018-07-24
p1918
V75.6
p1919
sV2017-05-23
p1920
V58.3
p1921
sV2017-05-22
p1922
V57.6
p1923
sV2017-05-21
p1924
V59.0
p1925
sV2017-05-20
p1926
V58.5
p1927
sV2017-05-27
p1928
V59.4
p1929
sV2017-05-26
p1930
V59.2
p1931
sV2017-05-25
p1932
V57.9
p1933
sV2017-05-24
p1934
V58.3
p1935
sV2018-05-06
p1936
V51.3
p1937
sV2018-05-07
p1938
V50.9
p1939
sV2018-05-04
p1940
V52.4
p1941
sV2018-05-05
p1942
V51.7
p1943
sV2018-05-02
p1944
V51.5
p1945
sV2018-05-03
p1946
V51.7
p1947
sV2018-05-01
p1948
V50.2
p1949
sV2015-10-11
p1950
V65.3
p1951
sV2018-05-08
p1952
V50.7
p1953
sV2018-05-09
p1954
V53.8
p1955
sV2012-06-01
p1956
V68.0
p1957
sV2012-06-03
p1958
V67.8
p1959
sV2012-06-02
p1960
V68.2
p1961
sV2012-06-05
p1962
V66.6
p1963
sV2012-06-04
p1964
V67.1
p1965
sV2012-06-07
p1966
V67.1
p1967
sV2014-10-29
p1968
V60.4
p1969
sV2012-06-09
p1970
V67.5
p1971
sV2014-10-27
p1972
V60.3
p1973
sV2014-10-24
p1974
V61.3
p1975
sV2014-10-25
p1976
V61.3
p1977
sV2014-10-22
p1978
V63.0
p1979
sV2014-10-23
p1980
V61.9
p1981
sV2014-10-20
p1982
V63.5
p1983
sV2014-10-21
p1984
V63.5
p1985
sV2015-08-31
p1986
V76.1
p1987
sV2015-08-30
p1988
V76.3
p1989
sV2013-08-20
p1990
V72.3
p1991
sV2013-08-21
p1992
V72.3
p1993
sV2013-08-22
p1994
V72.3
p1995
sV2013-08-23
p1996
V72.7
p1997
sV2013-08-24
p1998
V72.1
p1999
sV2013-05-18
p2000
V56.7
p2001
sV2013-08-26
p2002
V73.2
p2003
sV2013-08-27
p2004
V72.5
p2005
sV2013-08-28
p2006
V72.7
p2007
sV2013-08-29
p2008
V72.5
p2009
sV2013-05-19
p2010
V56.1
p2011
sV2018-06-07
p2012
V63.7
p2013
sV2018-06-06
p2014
V64.1
p2015
sV2018-06-05
p2016
V64.3
p2017
sV2018-06-04
p2018
V63.7
p2019
sV2018-06-03
p2020
V64.0
p2021
sV2018-06-02
p2022
V64.3
p2023
sV2018-06-01
p2024
V63.3
p2025
sV2018-06-09
p2026
V65.6
p2027
sV2018-06-08
p2028
V65.9
p2029
sV2011-08-04
p2030
V75.0
p2031
sV2011-09-30
p2032
V69.8
p2033
sV2017-10-14
p2034
V69.2
p2035
sV2017-10-15
p2036
V69.0
p2037
sV2017-10-16
p2038
V68.4
p2039
sV2017-10-17
p2040
V67.5
p2041
sV2017-10-10
p2042
V70.3
p2043
sV2017-10-11
p2044
V70.4
p2045
sV2017-10-12
p2046
V69.9
p2047
sV2017-10-13
p2048
V68.9
p2049
sV2017-10-18
p2050
V66.7
p2051
sV2017-10-19
p2052
V66.6
p2053
sV2017-07-30
p2054
V74.1
p2055
sV2009-07-31
p2056
V78.6
p2057
sV2009-07-30
p2058
V77.2
p2059
sV2014-06-21
p2060
V68.2
p2061
sV2014-06-20
p2062
V68.5
p2063
sV2014-06-23
p2064
V69.6
p2065
sV2014-06-22
p2066
V69.3
p2067
sV2014-06-25
p2068
V70.3
p2069
sV2014-06-24
p2070
V70.0
p2071
sV2014-06-27
p2072
V71.1
p2073
sV2014-06-26
p2074
V70.7
p2075
sV2014-06-29
p2076
V71.2
p2077
sV2014-06-28
p2078
V71.2
p2079
sV2008-07-29
p2080
V78.8
p2081
sV2008-07-28
p2082
V77.7
p2083
sV2008-07-25
p2084
V76.6
p2085
sV2008-07-24
p2086
V76.6
p2087
sV2008-07-27
p2088
V77.2
p2089
sV2008-07-26
p2090
V77.7
p2091
sV2008-07-21
p2092
V75.0
p2093
sV2008-07-20
p2094
V74.8
p2095
sV2008-07-23
p2096
V74.8
p2097
sV2008-07-22
p2098
V75.6
p2099
sV2014-05-08
p2100
V52.2
p2101
sV2014-05-09
p2102
V52.4
p2103
sV2014-05-02
p2104
V51.6
p2105
sV2014-05-03
p2106
V51.9
p2107
sV2014-05-01
p2108
V50.7
p2109
sV2014-05-06
p2110
V50.9
p2111
sV2014-05-07
p2112
V50.8
p2113
sV2014-05-04
p2114
V52.0
p2115
sV2014-05-05
p2116
V51.9
p2117
sV2015-10-30
p2118
V59.7
p2119
sV2015-10-31
p2120
V59.0
p2121
sV2016-09-16
p2122
V
sV2016-09-19
p2123
V
sV2013-07-09
p2124
V72.0
p2125
sV2013-07-08
p2126
V71.6
p2127
sV2013-07-03
p2128
V72.3
p2129
sV2013-07-02
p2130
V72.3
p2131
sV2013-07-01
p2132
V71.2
p2133
sV2013-07-07
p2134
V71.1
p2135
sV2013-07-06
p2136
V70.7
p2137
sV2013-07-05
p2138
V71.6
p2139
sV2013-07-04
p2140
V72.0
p2141
sV2012-08-30
p2142
V76.6
p2143
sV2012-08-31
p2144
V77.0
p2145
sV2016-08-29
p2146
V
sV2016-08-28
p2147
V
sV2016-08-25
p2148
V
sV2016-08-24
p2149
V
sV2016-08-27
p2150
V
sV2016-08-26
p2151
V
sV2016-08-21
p2152
V
sV2016-08-20
p2153
V
sV2016-08-23
p2154
V
sV2016-08-22
p2155
V
sV2010-07-19
p2156
V77.0
p2157
sV2010-07-18
p2158
V76.5
p2159
sV2010-07-13
p2160
V73.0
p2161
sV2010-07-12
p2162
V72.7
p2163
sV2010-07-11
p2164
V72.1
p2165
sV2010-07-10
p2166
V71.1
p2167
sV2010-07-17
p2168
V76.3
p2169
sV2010-07-16
p2170
V75.2
p2171
sV2010-07-15
p2172
V74.3
p2173
sV2010-07-14
p2174
V73.8
p2175
sV2018-11-01
p2176
V56.1
p2177
sV2011-07-29
p2178
V74.3
p2179
sV2011-07-28
p2180
V74.8
p2181
sV2011-07-23
p2182
V75.2
p2183
sV2011-07-22
p2184
V74.7
p2185
sV2011-07-21
p2186
V74.5
p2187
sV2011-07-20
p2188
V74.3
p2189
sV2011-07-27
p2190
V73.6
p2191
sV2011-07-26
p2192
V74.5
p2193
sV2011-07-25
p2194
V73.9
p2195
sV2011-07-24
p2196
V74.3
p2197
sV2016-07-02
p2198
V
sV2016-07-03
p2199
V
sV2016-07-01
p2200
V
sV2016-07-06
p2201
V
sV2016-07-07
p2202
V
sV2016-07-04
p2203
V
sV2016-07-05
p2204
V
sV2016-07-08
p2205
V
sV2016-07-09
p2206
V
sV2018-05-15
p2207
V55.2
p2208
sV2018-05-14
p2209
V54.3
p2210
sV2018-05-17
p2211
V55.7
p2212
sV2018-05-16
p2213
V55.6
p2214
sV2018-05-11
p2215
V53.7
p2216
sV2018-05-10
p2217
V54.3
p2218
sV2018-05-13
p2219
V53.6
p2220
sV2018-05-12
p2221
V54.3
p2222
sV2018-05-19
p2223
V56.3
p2224
sV2018-05-18
p2225
V56.2
p2226
sV2017-09-27
p2227
V72.6
p2228
sV2017-09-26
p2229
V72.6
p2230
sV2017-09-25
p2231
V
sV2017-09-24
p2232
V71.6
p2233
sV2012-06-30
p2234
V72.5
p2235
sV2017-09-22
p2236
V71.3
p2237
sV2017-09-21
p2238
V
sV2017-09-20
p2239
V
sV2014-10-31
p2240
V59.8
p2241
sV2014-10-30
p2242
V60.1
p2243
sV2017-09-29
p2244
V72.6
p2245
sV2017-09-28
p2246
V73.0
p2247
sV2015-08-08
p2248
V73.6
p2249
sV2015-08-09
p2250
V73.8
p2251
sV2015-08-04
p2252
V73.8
p2253
sV2015-08-05
p2254
V74.7
p2255
sV2015-08-06
p2256
V73.9
p2257
sV2015-08-07
p2258
V73.6
p2259
sV2015-08-01
p2260
V74.1
p2261
sV2015-08-02
p2262
V73.9
p2263
sV2015-08-03
p2264
V73.6
p2265
sV2018-09-24
p2266
V72.7
p2267
sV2018-09-25
p2268
V71.4
p2269
sV2018-09-26
p2270
V72.0
p2271
sV2018-09-27
p2272
V
sV2018-09-20
p2273
V74.8
p2274
sV2018-09-21
p2275
V74.1
p2276
sV2013-08-31
p2277
V73.4
p2278
sV2013-08-30
p2279
V73.2
p2280
sV2018-09-28
p2281
V71.2
p2282
sV2018-09-29
p2283
V71.1
p2284
sV2017-08-31
p2285
V72.7
p2286
sV2010-08-05
p2287
V74.5
p2288
sV2010-08-04
p2289
V73.4
p2290
sV2010-08-07
p2291
V75.2
p2292
sV2010-08-06
p2293
V75.2
p2294
sV2010-08-01
p2295
V72.9
p2296
sV2010-08-03
p2297
V72.5
p2298
sV2010-08-02
p2299
V73.6
p2300
sV2010-08-09
p2301
V74.5
p2302
sV2010-08-08
p2303
V74.5
p2304
sV2009-09-28
p2305
V72.5
p2306
sV2009-09-29
p2307
V71.4
p2308
sV2009-09-22
p2309
V72.9
p2310
sV2009-09-23
p2311
V73.4
p2312
sV2009-09-20
p2313
V73.4
p2314
sV2009-09-21
p2315
V72.9
p2316
sV2009-09-26
p2317
V72.7
p2318
sV2009-09-27
p2319
V72.5
p2320
sV2009-09-24
p2321
V73.6
p2322
sV2009-09-25
p2323
V73.4
p2324
sV2015-06-13
p2325
V67.5
p2326
sV2015-06-12
p2327
V66.2
p2328
sV2014-07-26
p2329
V73.8
p2330
sV2011-09-29
p2331
V69.4
p2332
sV2011-09-28
p2333
V69.6
p2334
sV2011-09-21
p2335
V66.9
p2336
sV2011-09-20
p2337
V66.7
p2338
sV2011-09-23
p2339
V68.2
p2340
sV2011-09-22
p2341
V67.6
p2342
sV2011-09-25
p2343
V68.9
p2344
sV2011-09-24
p2345
V68.5
p2346
sV2011-09-27
p2347
V69.6
p2348
sV2011-09-26
p2349
V69.1
p2350
sV2008-08-02
p2351
V76.8
p2352
sV2015-06-19
p2353
V68.7
p2354
sV2017-10-09
p2355
V69.8
p2356
sV2008-08-01
p2357
V77.7
p2358
sV2008-08-06
p2359
V77.2
p2360
sV2008-08-07
p2361
V77.9
p2362
sV2008-08-04
p2363
V77.4
p2364
sV2015-06-18
p2365
V68.0
p2366
sV2017-10-03
p2367
V70.2
p2368
sV2017-10-02
p2369
V70.6
p2370
sV2008-08-08
p2371
V77.7
p2372
sV2008-08-09
p2373
V78.1
p2374
sV2017-10-07
p2375
V70.5
p2376
sV2017-10-06
p2377
V70.0
p2378
sV2017-10-05
p2379
V70.2
p2380
sV2017-10-04
p2381
V70.0
p2382
sV2016-09-17
p2383
V
sV2014-06-14
p2384
V65.6
p2385
sV2014-06-15
p2386
V66.5
p2387
sV2014-06-16
p2388
V67.0
p2389
sV2014-06-17
p2390
V67.7
p2391
sV2014-06-10
p2392
V64.7
p2393
sV2014-06-11
p2394
V64.1
p2395
sV2014-06-12
p2396
V63.9
p2397
sV2014-06-13
p2398
V65.0
p2399
sV2016-06-12
p2400
V
sV2014-06-18
p2401
V68.1
p2402
sV2014-06-19
p2403
V68.0
p2404
sV2016-06-13
p2405
V
sV2008-07-10
p2406
V73.9
p2407
sV2008-07-11
p2408
V74.1
p2409
sV2008-07-12
p2410
V75.2
p2411
sV2008-07-13
p2412
V75.7
p2413
sV2008-07-14
p2414
V74.8
p2415
sV2008-07-15
p2416
V75.4
p2417
sV2008-07-16
p2418
V74.8
p2419
sV2008-07-17
p2420
V74.5
p2421
sV2008-07-18
p2422
V75.6
p2423
sV2008-07-19
p2424
V75.7
p2425
sV2014-05-19
p2426
V57.7
p2427
sV2014-05-18
p2428
V57.0
p2429
sV2014-05-11
p2430
V53.8
p2431
sV2014-05-10
p2432
V52.4
p2433
sV2014-05-13
p2434
V54.3
p2435
sV2014-05-12
p2436
V
sV2014-05-15
p2437
V54.7
p2438
sV2014-05-14
p2439
V54.6
p2440
sV2014-05-17
p2441
V57.3
p2442
sV2014-05-16
p2443
V54.8
p2444
sV2015-10-29
p2445
V60.3
p2446
sV2015-10-28
p2447
V59.5
p2448
sV2015-10-27
p2449
V60.1
p2450
sV2015-10-26
p2451
V60.6
p2452
sV2015-10-25
p2453
V61.0
p2454
sV2015-10-24
p2455
V61.0
p2456
sV2015-10-23
p2457
V61.5
p2458
sV2015-10-22
p2459
V61.5
p2460
sV2015-10-21
p2461
V61.5
p2462
sV2015-10-20
p2463
V
sV2012-08-29
p2464
V76.8
p2465
sV2012-08-28
p2466
V76.8
p2467
sV2012-08-21
p2468
V74.1
p2469
sV2008-08-20
p2470
V75.9
p2471
sV2012-08-23
p2472
V74.8
p2473
sV2012-08-22
p2474
V74.5
p2475
sV2012-08-25
p2476
V75.6
p2477
sV2012-08-24
p2478
V75.2
p2479
sV2012-08-27
p2480
V76.1
p2481
sV2008-08-21
p2482
V75.7
p2483
sV2016-08-10
p2484
V
sV2016-08-11
p2485
V
sV2016-08-12
p2486
V
sV2016-08-13
p2487
V
sV2016-08-14
p2488
V
sV2016-08-15
p2489
V
sV2016-08-16
p2490
V
sV2016-08-17
p2491
V
sV2016-08-18
p2492
V
sV2016-08-19
p2493
V
sV2016-09-18
p2494
V
sV2016-07-11
p2495
V
sV2016-07-10
p2496
V
sV2016-07-13
p2497
V
sV2016-07-12
p2498
V
sV2016-07-15
p2499
V
sV2016-07-14
p2500
V
sV2016-07-17
p2501
V
sV2016-07-16
p2502
V
sV2016-07-19
p2503
V
sV2016-07-18
p2504
V
sV2018-09-23
p2505
V73.1
p2506
sV2018-05-28
p2507
V61.8
p2508
sV2018-05-29
p2509
V62.1
p2510
sV2018-05-20
p2511
V57.3
p2512
sV2018-05-21
p2513
V58.0
p2514
sV2018-05-22
p2515
V58.4
p2516
sV2018-05-23
p2517
V58.8
p2518
sV2018-05-24
p2519
V60.6
p2520
sV2018-05-25
p2521
V62.2
p2522
sV2018-05-26
p2523
V62.9
p2524
sV2018-05-27
p2525
V61.8
p2526
sV2012-06-29
p2527
V71.2
p2528
sV2012-06-28
p2529
V70.2
p2530
sV2012-06-23
p2531
V72.1
p2532
sV2012-06-22
p2533
V72.7
p2534
sV2012-06-21
p2535
V71.6
p2536
sV2012-06-20
p2537
V71.6
p2538
sV2012-06-27
p2539
V70.7
p2540
sV2012-06-26
p2541
V71.2
p2542
sV2012-06-25
p2543
V71.8
p2544
sV2012-06-24
p2545
V72.7
p2546
sV2014-10-01
p2547
V68.9
p2548
sV2014-10-02
p2549
V68.5
p2550
sV2014-10-03
p2551
V68.7
p2552
sV2014-10-04
p2553
V68.7
p2554
sV2014-10-05
p2555
V67.8
p2556
sV2014-10-06
p2557
V67.5
p2558
sV2014-10-07
p2559
V66.9
p2560
sV2014-10-08
p2561
V66.9
p2562
sV2014-10-09
p2563
V66.2
p2564
sV2014-07-05
p2565
V70.2
p2566
sV2015-08-13
p2567
V74.8
p2568
sV2015-08-12
p2569
V74.5
p2570
sV2015-08-11
p2571
V73.8
p2572
sV2015-08-10
p2573
V74.7
p2574
sV2015-08-17
p2575
V75.4
p2576
sV2015-08-16
p2577
V75.6
p2578
sV2015-08-15
p2579
V75.7
p2580
sV2015-08-14
p2581
V75.6
p2582
sV2015-08-19
p2583
V75.9
p2584
sV2015-08-18
p2585
V75.6
p2586
sV2012-05-03
p2587
V54.7
p2588
sV2013-09-18
p2589
V67.5
p2590
sV2013-09-19
p2591
V67.3
p2592
sV2013-09-12
p2593
V71.2
p2594
sV2013-09-13
p2595
V71.2
p2596
sV2013-09-10
p2597
V70.3
p2598
sV2013-09-11
p2599
V70.9
p2600
sV2013-09-16
p2601
V69.6
p2602
sV2013-09-17
p2603
V68.4
p2604
sV2013-09-14
p2605
V71.4
p2606
sV2013-09-15
p2607
V70.7
p2608
sV2014-09-08
p2609
V74.5
p2610
sV2014-09-09
p2611
V73.4
p2612
sV2014-09-06
p2613
V75.9
p2614
sV2014-09-07
p2615
V75.4
p2616
sV2014-09-04
p2617
V74.8
p2618
sV2014-09-05
p2619
V75.6
p2620
sV2014-09-02
p2621
V74.5
p2622
sV2014-09-03
p2623
V74.8
p2624
sV2014-09-01
p2625
V74.1
p2626
sV2015-07-18
p2627
V72.7
p2628
sV2015-07-19
p2629
V73.2
p2630
sV2015-07-16
p2631
V73.0
p2632
sV2015-07-17
p2633
V72.9
p2634
sV2015-07-14
p2635
V72.9
p2636
sV2015-07-15
p2637
V72.7
p2638
sV2015-07-12
p2639
V73.0
p2640
sV2015-07-13
p2641
V73.9
p2642
sV2015-07-10
p2643
V72.1
p2644
sV2015-07-11
p2645
V73.0
p2646
sV2009-09-30
p2647
V71.1
p2648
sV2011-09-18
p2649
V67.6
p2650
sV2011-09-19
p2651
V67.3
p2652
sV2011-09-14
p2653
V71.6
p2654
sV2011-09-15
p2655
V
sV2011-09-16
p2656
V69.3
p2657
sV2011-09-17
p2658
V69.1
p2659
sV2011-09-10
p2660
V70.7
p2661
sV2011-09-11
p2662
V70.5
p2663
sV2011-09-12
p2664
V70.9
p2665
sV2011-09-13
p2666
V71.4
p2667
sV2009-05-26
p2668
V62.6
p2669
sV2008-08-10
p2670
V78.1
p2671
sV2008-08-13
p2672
V76.6
p2673
sV2009-05-25
p2674
V63.3
p2675
sV2009-05-22
p2676
V62.4
p2677
sV2009-05-23
p2678
V62.4
p2679
sV2009-05-20
p2680
V61.9
p2681
sV2008-08-16
p2682
V76.5
p2683
sV2008-08-19
p2684
V76.5
p2685
sV2008-08-18
p2686
V76.5
p2687
sV2009-05-28
p2688
V63.1
p2689
sV2009-05-29
p2690
V64.0
p2691
sV2008-07-07
p2692
V71.6
p2693
sV2008-07-06
p2694
V70.9
p2695
sV2008-07-05
p2696
V71.1
p2697
sV2008-07-04
p2698
V71.4
p2699
sV2008-07-03
p2700
V72.0
p2701
sV2008-07-02
p2702
V71.8
p2703
sV2008-07-01
p2704
V72.0
p2705
sV2008-07-09
p2706
V73.2
p2707
sV2008-07-08
p2708
V72.5
p2709
sV2014-05-28
p2710
V60.2
p2711
sV2014-05-29
p2712
V60.4
p2713
sV2014-05-24
p2714
V58.8
p2715
sV2014-05-25
p2716
V59.9
p2717
sV2014-05-26
p2718
V61.6
p2719
sV2014-05-27
p2720
V61.5
p2721
sV2014-05-20
p2722
V57.2
p2723
sV2014-05-21
p2724
V57.6
p2725
sV2014-05-22
p2726
V57.8
p2727
sV2014-05-23
p2728
V59.0
p2729
sV2015-06-29
p2730
V68.0
p2731
sV2014-06-09
p2732
V64.5
p2733
sV2014-06-08
p2734
V65.4
p2735
sV2012-08-18
p2736
V75.2
p2737
sV2012-08-19
p2738
V74.3
p2739
sV2012-08-14
p2740
V77.2
p2741
sV2012-08-15
p2742
V76.1
p2743
sV2014-06-01
p2744
V62.6
p2745
sV2012-08-17
p2746
V75.6
p2747
sV2012-08-10
p2748
V77.5
p2749
sV2014-06-06
p2750
V62.8
p2751
sV2012-08-12
p2752
V79.0
p2753
sV2012-08-13
p2754
V77.7
p2755
sV2016-08-07
p2756
V
sV2012-07-28
p2757
V75.4
p2758
sV2016-08-05
p2759
V
sV2016-08-04
p2760
V
sV2016-08-03
p2761
V
sV2016-08-02
p2762
V
sV2016-08-01
p2763
V
sV2013-10-11
p2764
V66.0
p2765
sV2016-08-09
p2766
V
sV2016-08-08
p2767
V
sV2012-07-20
p2768
V72.1
p2769
sV2012-07-21
p2770
V72.1
p2771
sV2016-09-30
p2772
V70.3
p2773
sV2016-07-24
p2774
V
sV2016-07-25
p2775
V
sV2016-07-26
p2776
V
sV2016-07-27
p2777
V
sV2016-07-20
p2778
V
sV2016-07-21
p2779
V
sV2016-07-22
p2780
V
sV2016-07-23
p2781
V
sV2016-07-28
p2782
V
sV2016-07-29
p2783
V
sV2010-06-30
p2784
V72.3
p2785
sV2018-05-31
p2786
V62.9
p2787
sV2018-05-30
p2788
V63.3
p2789
sV2017-08-30
p2790
V72.3
p2791
sV2014-10-17
p2792
V65.8
p2793
sV2014-10-16
p2794
V65.3
p2795
sV2014-10-15
p2796
V65.3
p2797
sV2014-10-14
p2798
V64.6
p2799
sV2014-10-13
p2800
V64.2
p2801
sV2014-10-12
p2802
V64.6
p2803
sV2014-10-11
p2804
V64.9
p2805
sV2014-10-10
p2806
V65.7
p2807
sV2014-10-19
p2808
V64.4
p2809
sV2014-10-18
p2810
V65.5
p2811
sV2013-09-09
p2812
V70.0
p2813
sV2013-09-08
p2814
V70.9
p2815
sV2013-09-01
p2816
V73.9
p2817
sV2013-09-03
p2818
V73.6
p2819
sV2013-09-02
p2820
V73.4
p2821
sV2013-09-05
p2822
V72.9
p2823
sV2013-09-04
p2824
V73.2
p2825
sV2013-09-07
p2826
V70.9
p2827
sV2013-09-06
p2828
V72.0
p2829
sV2018-07-28
p2830
V77.5
p2831
sV2018-07-29
p2832
V77.1
p2833
sV2014-09-19
p2834
V71.1
p2835
sV2014-09-18
p2836
V71.6
p2837
sV2014-09-15
p2838
V71.8
p2839
sV2014-09-14
p2840
V72.3
p2841
sV2014-09-17
p2842
V71.2
p2843
sV2014-09-16
p2844
V71.6
p2845
sV2014-09-11
p2846
V72.9
p2847
sV2014-09-10
p2848
V73.2
p2849
sV2014-09-13
p2850
V72.1
p2851
sV2014-09-12
p2852
V73.0
p2853
sV2015-07-09
p2854
V71.8
p2855
sV2015-07-08
p2856
V71.2
p2857
sV2015-07-05
p2858
V70.2
p2859
sV2015-07-04
p2860
V69.6
p2861
sV2015-07-07
p2862
V71.1
p2863
sV2015-07-06
p2864
V71.2
p2865
sV2015-07-01
p2866
V69.6
p2867
sV2015-07-03
p2868
V70.9
p2869
sV2015-07-02
p2870
V70.0
p2871
sV2009-09-08
p2872
V76.5
p2873
sV2009-09-09
p2874
V76.3
p2875
sV2009-09-04
p2876
V76.8
p2877
sV2009-09-05
p2878
V77.4
p2879
sV2009-09-06
p2880
V76.9
p2881
sV2009-09-07
p2882
V76.8
p2883
sV2009-09-01
p2884
V76.6
p2885
sV2009-09-02
p2886
V76.6
p2887
sV2009-09-03
p2888
V76.7
p2889
sV2011-09-03
p2890
V72.1
p2891
sV2011-09-02
p2892
V73.4
p2893
sV2011-09-01
p2894
V73.8
p2895
sV2011-09-07
p2896
V71.2
p2897
sV2011-09-06
p2898
V72.7
p2899
sV2011-09-05
p2900
V72.3
p2901
sV2011-09-04
p2902
V72.5
p2903
sV2011-09-09
p2904
V70.7
p2905
sV2011-09-08
p2906
V71.2
p2907
sV2008-08-24
p2908
V75.9
p2909
sV2008-08-25
p2910
V76.3
p2911
sV2008-08-26
p2912
V76.8
p2913
sV2008-08-27
p2914
V76.6
p2915
sV2009-05-31
p2916
V64.9
p2917
sV2009-05-30
p2918
V64.6
p2919
sV2008-08-22
p2920
V76.3
p2921
sV2008-08-23
p2922
V76.3
p2923
sV2015-08-29
p2924
V76.3
p2925
sV2008-08-28
p2926
V76.1
p2927
sV2008-08-29
p2928
V75.9
p2929
sV2017-08-11
p2930
V73.6
p2931
sV2017-08-10
p2932
V73.6
p2933
sV2017-08-13
p2934
V73.9
p2935
sV2017-08-12
p2936
V73.4
p2937
sV2017-08-15
p2938
V73.8
p2939
sV2017-08-14
p2940
V74.5
p2941
sV2017-08-17
p2942
V74.8
p2943
sV2017-08-16
p2944
V74.3
p2945
sV2014-05-31
p2946
V61.0
p2947
sV2014-05-30
p2948
V61.2
p2949
sV2018-07-11
p2950
V72.4
p2951
sV2018-07-10
p2952
V72.7
p2953
sV2012-08-03
p2954
V76.8
p2955
sV2012-08-02
p2956
V76.1
p2957
sV2012-08-01
p2958
V75.2
p2959
sV2012-08-07
p2960
V77.9
p2961
sV2012-08-06
p2962
V77.9
p2963
sV2012-08-05
p2964
V77.9
p2965
sV2012-08-04
p2966
V77.7
p2967
sV2012-08-09
p2968
V77.5
p2969
sV2012-08-08
p2970
V77.9
p2971
sV2018-07-19
p2972
V73.5
p2973
sV2018-07-18
p2974
V73.7
p2975
sV2017-09-09
p2976
V
sV2017-09-08
p2977
V
sV2017-09-07
p2978
V70.9
p2979
sV2017-09-06
p2980
V71.1
p2981
sV2008-08-03
p2982
V77.4
p2983
sV2017-10-08
p2984
V69.7
p2985
sV2008-08-05
p2986
V77.7
p2987
sV2009-08-05
p2988
V78.4
p2989
sV2010-06-25
p2990
V72.0
p2991
sV2010-06-24
p2992
V71.6
p2993
sV2010-06-27
p2994
V72.0
p2995
sV2010-06-26
p2996
V72.3
p2997
sV2010-06-21
p2998
V69.4
p2999
sV2010-06-20
p3000
V68.2
p3001
sV2010-06-23
p3002
V71.1
p3003
sV2010-06-22
p3004
V71.2
p3005
sV2010-06-29
p3006
V73.0
p3007
sV2010-06-28
p3008
V71.6
p3009
sV2011-06-06
p3010
V61.3
p3011
sV2011-06-07
p3012
V62.1
p3013
sV2011-06-04
p3014
V62.8
p3015
sV2011-06-05
p3016
V61.7
p3017
sV2011-06-02
p3018
V65.1
p3019
sV2011-06-03
p3020
V64.4
p3021
sV2011-06-01
p3022
V64.6
p3023
sV2008-05-03
p3024
V55.2
p3025
sV2011-06-08
p3026
V62.8
p3027
sV2011-06-09
p3028
V63.5
p3029
sV2008-05-02
p3030
V55.6
p3031
sV2015-08-24
p3032
V76.3
p3033
sV2008-05-05
p3034
V56.5
p3035
sV2009-08-08
p3036
V76.3
p3037
sV2013-09-30
p3038
V66.6
p3039
sV2008-05-04
p3040
V55.8
p3041
sV2014-09-20
p3042
V70.7
p3043
sV2014-09-21
p3044
V70.9
p3045
sV2014-09-22
p3046
V70.7
p3047
sV2014-09-23
p3048
V70.3
p3049
sV2014-09-24
p3050
V69.8
p3051
sV2008-05-07
p3052
V57.6
p3053
sV2014-09-26
p3054
V68.9
p3055
sV2014-09-27
p3056
V69.1
p3057
sV2014-09-28
p3058
V69.3
p3059
sV2014-09-29
p3060
V69.3
p3061
sV2008-05-06
p3062
V57.0
p3063
sV2008-05-09
p3064
V57.7
p3065
sV2008-05-08
p3066
V58.1
p3067
sV2018-09-06
p3068
V78.9
p3069
sV2016-07-31
p3070
V
sV2016-07-30
p3071
V
sV2011-05-30
p3072
V64.8
p3073
sV2011-05-31
p3074
V64.8
p3075
sV2015-07-30
p3076
V73.9
p3077
sV2015-07-31
p3078
V74.1
p3079
sV2017-07-29
p3080
V74.8
p3081
sV2017-07-28
p3082
V75.0
p3083
sV2017-07-25
p3084
V74.3
p3085
sV2017-07-24
p3086
V74.7
p3087
sV2017-07-27
p3088
V74.5
p3089
sV2017-07-26
p3090
V74.7
p3091
sV2017-07-21
p3092
V77.0
p3093
sV2017-07-20
p3094
V76.6
p3095
sV2017-07-23
p3096
V76.1
p3097
sV2017-07-22
p3098
V76.8
p3099
sV2018-09-09
p3100
V76.0
p3101
sV2009-10-08
p3102
V67.8
p3103
sV2009-10-09
p3104
V66.9
p3105
sV2009-10-06
p3106
V68.5
p3107
sV2009-10-07
p3108
V68.0
p3109
sV2009-10-04
p3110
V69.4
p3111
sV2009-10-05
p3112
V68.9
p3113
sV2009-10-02
p3114
V69.2
p3115
sV2009-10-03
p3116
V68.9
p3117
sV2009-10-01
p3118
V69.8
p3119
sV2008-09-18
p3120
V73.7
p3121
sV2008-09-19
p3122
V72.9
p3123
sV2009-09-13
p3124
V74.7
p3125
sV2009-09-12
p3126
V74.6
p3127
sV2009-09-11
p3128
V74.8
p3129
sV2009-09-10
p3130
V75.7
p3131
sV2009-09-17
p3132
V73.8
p3133
sV2009-09-16
p3134
V74.5
p3135
sV2009-09-15
p3136
V74.9
p3137
sV2009-09-14
p3138
V74.8
p3139
sV2009-09-19
p3140
V73.6
p3141
sV2009-09-18
p3142
V
sV2008-09-14
p3143
V75.2
p3144
sV2008-09-15
p3145
V75.2
p3146
sV2008-09-12
p3147
V74.8
p3148
sV2014-07-23
p3149
V74.8
p3150
sV2008-09-10
p3151
V77.0
p3152
sV2008-09-11
p3153
V76.3
p3154
sV2009-05-08
p3155
V59.0
p3156
sV2009-05-09
p3157
V59.4
p3158
sV2009-05-01
p3159
V56.5
p3160
sV2008-08-31
p3161
V76.5
p3162
sV2008-08-30
p3163
V76.3
p3164
sV2009-05-04
p3165
V57.6
p3166
sV2009-05-05
p3167
V57.2
p3168
sV2009-05-06
p3169
V58.3
p3170
sV2009-05-07
p3171
V58.1
p3172
sV2009-06-05
p3173
V65.5
p3174
sV2009-06-18
p3175
V69.4
p3176
sV2009-06-19
p3177
V70.2
p3178
sV2009-06-16
p3179
V69.1
p3180
sV2009-06-17
p3181
V69.1
p3182
sV2009-06-14
p3183
V68.4
p3184
sV2009-06-15
p3185
V68.9
p3186
sV2009-06-12
p3187
V67.3
p3188
sV2009-06-13
p3189
V68.4
p3190
sV2009-06-10
p3191
V66.9
p3192
sV2009-06-11
p3193
V66.9
p3194
sV2018-07-25
p3195
V75.5
p3196
sV2018-09-22
p3197
V74.1
p3198
sV2018-08-18
p3199
V77.3
p3200
sV2015-05-30
p3201
V62.6
p3202
sV2015-05-31
p3203
V61.2
p3204
sV2009-10-28
p3205
V61.5
p3206
sV2009-10-29
p3207
V61.7
p3208
sV2009-06-07
p3209
V66.7
p3210
sV2018-08-15
p3211
V75.9
p3212
sV2017-08-20
p3213
V75.7
p3214
sV2018-08-12
p3215
V76.1
p3216
sV2018-08-13
p3217
V75.3
p3218
sV2018-08-10
p3219
V77.1
p3220
sV2018-08-11
p3221
V75.5
p3222
sV2017-08-21
p3223
V76.1
p3224
sV2018-06-11
p3225
V65.0
p3226
sV2017-07-31
p3227
V74.3
p3228
sV2018-06-17
p3229
V65.7
p3230
sV2010-06-18
p3231
V67.6
p3232
sV2010-06-19
p3233
V67.5
p3234
sV2010-06-10
p3235
V64.8
p3236
sV2010-06-11
p3237
V64.4
p3238
sV2010-06-12
p3239
V64.4
p3240
sV2010-06-13
p3241
V64.9
p3242
sV2010-06-14
p3243
V64.6
p3244
sV2010-06-15
p3245
V65.1
p3246
sV2010-06-16
p3247
V65.8
p3248
sV2010-06-17
p3249
V66.7
p3250
sV2016-09-28
p3251
V72.5
p3252
sV2016-09-29
p3253
V71.2
p3254
sV2016-09-22
p3255
V73.9
p3256
sV2016-09-23
p3257
V74.5
p3258
sV2016-09-20
p3259
V73.6
p3260
sV2016-09-21
p3261
V73.9
p3262
sV2016-09-26
p3263
V73.2
p3264
sV2016-09-27
p3265
V73.0
p3266
sV2016-09-24
p3267
V74.1
p3268
sV2016-09-25
p3269
V73.8
p3270
sV2011-06-15
p3271
V66.6
p3272
sV2011-06-14
p3273
V65.7
p3274
sV2011-06-17
p3275
V67.6
p3276
sV2011-06-16
p3277
V67.8
p3278
sV2011-06-11
p3279
V66.0
p3280
sV2011-06-10
p3281
V64.6
p3282
sV2011-06-13
p3283
V65.8
p3284
sV2011-06-12
p3285
V64.8
p3286
sV2011-06-19
p3287
V68.4
p3288
sV2011-06-18
p3289
V68.0
p3290
sV2013-09-23
p3291
V67.3
p3292
sV2013-09-22
p3293
V67.3
p3294
sV2013-09-21
p3295
V67.1
p3296
sV2013-09-20
p3297
V67.8
p3298
sV2013-09-27
p3299
V66.2
p3300
sV2013-09-26
p3301
V66.2
p3302
sV2013-09-25
p3303
V66.2
p3304
sV2013-09-24
p3305
V66.6
p3306
sV2013-09-29
p3307
V67.1
p3308
sV2013-09-28
p3309
V65.8
p3310
sV2018-07-08
p3311
V72.9
p3312
sV2018-07-09
p3313
V72.8
p3314
sV2014-09-30
p3315
V69.1
p3316
sV2018-07-04
p3317
V72.8
p3318
sV2018-07-05
p3319
V72.7
p3320
sV2018-07-06
p3321
V73.1
p3322
sV2018-07-07
p3323
V72.9
p3324
sV2018-07-01
p3325
V70.9
p3326
sV2018-07-02
p3327
V71.5
p3328
sV2018-07-03
p3329
V74.7
p3330
sV2011-05-29
p3331
V63.1
p3332
sV2011-05-28
p3333
V63.5
p3334
sV2011-05-25
p3335
V60.3
p3336
sV2011-05-24
p3337
V59.9
p3338
sV2011-05-27
p3339
V62.8
p3340
sV2011-05-26
p3341
V61.3
p3342
sV2011-05-21
p3343
V59.7
p3344
sV2011-05-20
p3345
V58.6
p3346
sV2011-05-23
p3347
V59.7
p3348
sV2011-05-22
p3349
V59.9
p3350
sV2015-07-27
p3351
V73.4
p3352
sV2015-07-26
p3353
V73.0
p3354
sV2015-07-25
p3355
V73.2
p3356
sV2015-07-24
p3357
V72.5
p3358
sV2015-07-23
p3359
V73.0
p3360
sV2015-07-22
p3361
V73.9
p3362
sV2015-07-21
p3363
V73.8
p3364
sV2015-07-20
p3365
V74.3
p3366
sV2017-07-18
p3367
V73.9
p3368
sV2017-06-08
p3369
V62.2
p3370
sV2015-07-29
p3371
V74.7
p3372
sV2015-07-28
p3373
V75.0
p3374
sV2009-10-19
p3375
V60.8
p3376
sV2009-10-18
p3377
V61.2
p3378
sV2009-10-15
p3379
V64.6
p3380
sV2009-10-14
p3381
V65.5
p3382
sV2009-10-17
p3383
V62.1
p3384
sV2009-10-16
p3385
V63.0
p3386
sV2009-10-11
p3387
V66.9
p3388
sV2009-10-10
p3389
V67.1
p3390
sV2009-10-13
p3391
V66.4
p3392
sV2009-10-12
p3393
V66.4
p3394
sV2017-06-02
p3395
V61.9
p3396
sV2017-06-03
p3397
V63.0
p3398
sV2009-05-19
p3399
V61.0
p3400
sV2009-05-18
p3401
V60.3
p3402
sV2009-05-17
p3403
V60.3
p3404
sV2009-05-16
p3405
V60.4
p3406
sV2009-05-15
p3407
V60.4
p3408
sV2009-05-14
p3409
V59.9
p3410
sV2009-05-13
p3411
V60.8
p3412
sV2009-05-12
p3413
V60.3
p3414
sV2009-05-11
p3415
V60.1
p3416
sV2009-05-10
p3417
V60.3
p3418
sV2008-06-28
p3419
V70.0
p3420
sV2008-06-29
p3421
V71.2
p3422
sV2009-06-09
p3423
V66.7
p3424
sV2009-06-08
p3425
V66.9
p3426
sV2008-06-22
p3427
V69.3
p3428
sV2009-06-04
p3429
V66.4
p3430
sV2008-06-20
p3431
V69.4
p3432
sV2008-06-21
p3433
V69.8
p3434
sV2008-06-26
p3435
V69.6
p3436
sV2008-06-27
p3437
V69.8
p3438
sV2009-06-03
p3439
V66.7
p3440
sV2008-06-25
p3441
V70.2
p3442
sV2015-05-29
p3443
V62.4
p3444
sV2015-05-28
p3445
V62.6
p3446
sV2013-05-14
p3447
V58.5
p3448
sV2013-05-15
p3449
V57.4
p3450
sV2013-05-12
p3451
V58.6
p3452
sV2013-05-13
p3453
V59.0
p3454
sV2013-05-10
p3455
V58.3
p3456
sV2013-05-11
p3457
V58.5
p3458
sV2015-05-21
p3459
V58.3
p3460
sV2015-05-20
p3461
V58.5
p3462
sV2015-05-23
p3463
V58.6
p3464
sV2015-05-22
p3465
V59.0
p3466
sV2015-05-25
p3467
V59.0
p3468
sV2015-05-24
p3469
V58.6
p3470
sV2015-05-27
p3471
V61.3
p3472
sV2015-05-26
p3473
V59.2
p3474
sV2008-11-01
p3475
V59.7
p3476
sV2012-08-20
p3477
V73.9
p3478
sV2015-11-01
p3479
V58.8
p3480
sV2012-08-26
p3481
V75.9
p3482
sV2017-09-23
p3483
V71.2
p3484
sV2014-09-25
p3485
V69.1
p3486
sV2018-07-31
p3487
V76.2
p3488
sV2018-07-30
p3489
V76.6
p3490
sV2010-06-09
p3491
V65.8
p3492
sV2010-06-08
p3493
V67.5
p3494
sV2010-06-07
p3495
V68.2
p3496
sV2010-06-06
p3497
V69.1
p3498
sV2010-06-05
p3499
V66.2
p3500
sV2010-06-04
p3501
V66.6
p3502
sV2010-06-03
p3503
V65.3
p3504
sV2010-06-02
p3505
V65.5
p3506
sV2010-06-01
p3507
V66.6
p3508
sV2013-05-01
p3509
V52.3
p3510
sV2013-05-09
p3511
V56.8
p3512
sV2013-05-08
p3513
V56.7
p3514
sV2016-05-26
p3515
V
sV2016-05-27
p3516
V
sV2016-05-24
p3517
V
sV2016-05-25
p3518
V
sV2016-05-22
p3519
V
sV2016-05-23
p3520
V
sV2016-05-20
p3521
V
sV2016-05-21
p3522
V
sV2017-08-19
p3523
V75.7
p3524
sV2017-08-18
p3525
V74.8
p3526
sV2016-05-28
p3527
V
sV2016-05-29
p3528
V
sV2018-07-13
p3529
V72.7
p3530
sV2018-07-12
p3531
V72.0
p3532
sV2014-08-18
p3533
V73.2
p3534
sV2014-08-19
p3535
V73.2
p3536
sV2018-07-17
p3537
V73.4
p3538
sV2018-07-16
p3539
V73.1
p3540
sV2018-07-15
p3541
V72.4
p3542
sV2018-07-14
p3543
V72.5
p3544
sV2014-08-12
p3545
V73.6
p3546
sV2014-08-13
p3547
V73.6
p3548
sV2014-08-10
p3549
V74.1
p3550
sV2014-08-11
p3551
V74.8
p3552
sV2014-08-16
p3553
V73.4
p3554
sV2014-08-17
p3555
V73.2
p3556
sV2014-08-14
p3557
V73.6
p3558
sV2014-08-15
p3559
V73.9
p3560
sV2011-05-10
p3561
V52.0
p3562
sV2011-05-11
p3563
V52.3
p3564
sV2011-05-12
p3565
V54.1
p3566
sV2011-05-13
p3567
V54.9
p3568
sV2011-05-14
p3569
V55.0
p3570
sV2011-05-15
p3571
V55.0
p3572
sV2011-05-16
p3573
V55.4
p3574
sV2011-05-17
p3575
V55.9
p3576
sV2011-05-18
p3577
V57.2
p3578
sV2011-05-19
p3579
V58.1
p3580
sV2018-10-12
p3581
V70.2
p3582
sV2017-07-07
p3583
V68.7
p3584
sV2017-07-06
p3585
V69.1
p3586
sV2017-07-05
p3587
V70.0
p3588
sV2017-07-04
p3589
V70.3
p3590
sV2017-07-03
p3591
V71.4
p3592
sV2017-07-02
p3593
V68.0
p3594
sV2017-07-01
p3595
V68.7
p3596
sV2017-07-09
p3597
V70.2
p3598
sV2017-07-08
p3599
V69.1
p3600
sV2011-06-28
p3601
V72.3
p3602
sV2011-06-29
p3603
V72.9
p3604
sV2009-10-22
p3605
V60.7
p3606
sV2009-10-23
p3607
V60.8
p3608
sV2009-10-24
p3609
V61.2
p3610
sV2009-10-25
p3611
V61.3
p3612
sV2009-10-26
p3613
V61.3
p3614
sV2009-10-27
p3615
V61.5
p3616
sV2011-06-20
p3617
V69.4
p3618
sV2011-06-21
p3619
V69.3
p3620
sV2011-06-22
p3621
V69.4
p3622
sV2011-06-23
p3623
V69.4
p3624
sV2011-06-24
p3625
V69.1
p3626
sV2011-06-25
p3627
V69.4
p3628
sV2011-06-26
p3629
V71.1
p3630
sV2011-06-27
p3631
V70.9
p3632
sV2011-10-12
p3633
V65.7
p3634
sV2011-10-13
p3635
V65.7
p3636
sV2011-10-10
p3637
V66.4
p3638
sV2011-10-11
p3639
V66.6
p3640
sV2011-10-16
p3641
V64.4
p3642
sV2011-10-17
p3643
V64.4
p3644
sV2011-10-14
p3645
V65.8
p3646
sV2011-10-15
p3647
V65.1
p3648
sV2011-10-18
p3649
V63.7
p3650
sV2011-10-19
p3651
V62.6
p3652
sV2016-10-16
p3653
V64.8
p3654
sV2013-10-30
p3655
V58.5
p3656
sV2013-10-31
p3657
V58.5
p3658
sV2012-07-06
p3659
V72.7
p3660
sV2012-07-07
p3661
V73.4
p3662
sV2012-07-04
p3663
V72.5
p3664
sV2012-07-05
p3665
V72.5
p3666
sV2012-07-02
p3667
V71.6
p3668
sV2012-07-03
p3669
V71.8
p3670
sV2012-07-01
p3671
V71.8
p3672
sV2012-07-08
p3673
V74.3
p3674
sV2012-07-09
p3675
V74.5
p3676
sV2009-06-30
p3677
V72.5
p3678
sV2008-06-30
p3679
V72.0
p3680
sV2013-05-05
p3681
V55.8
p3682
sV2013-05-04
p3683
V55.2
p3684
sV2013-05-07
p3685
V56.8
p3686
sV2013-05-06
p3687
V56.5
p3688
sV2015-05-18
p3689
V57.7
p3690
sV2015-05-19
p3691
V58.1
p3692
sV2013-05-03
p3693
V53.6
p3694
sV2013-05-02
p3695
V53.1
p3696
sV2015-05-14
p3697
V58.6
p3698
sV2015-05-15
p3699
V58.1
p3700
sV2015-05-16
p3701
V57.6
p3702
sV2015-05-17
p3703
V58.1
p3704
sV2015-05-10
p3705
V54.7
p3706
sV2015-05-11
p3707
V55.6
p3708
sV2015-05-12
p3709
V56.7
p3710
sV2015-05-13
p3711
V57.6
p3712
sV2013-06-28
p3713
V69.8
p3714
sV2013-06-29
p3715
V70.5
p3716
sV2013-06-26
p3717
V68.9
p3718
sV2013-06-27
p3719
V69.6
p3720
sV2013-06-24
p3721
V69.4
p3722
sV2013-06-25
p3723
V69.4
p3724
sV2013-06-22
p3725
V68.0
p3726
sV2013-06-23
p3727
V68.5
p3728
sV2013-06-20
p3729
V66.7
p3730
sV2013-06-21
p3731
V67.6
p3732
sV2018-09-07
p3733
V78.3
p3734
s.