(dp1
V2017-10-01
p2
V70.9
p3
sV2016-09-08
p4
V
sV2016-09-09
p5
V
sV2010-05-08
p6
V56.3
p7
sV2010-05-09
p8
V55.8
p9
sV2010-05-06
p10
V54.5
p11
sV2010-05-07
p12
V55.6
p13
sV2010-05-04
p14
V54.0
p15
sV2010-05-05
p16
V54.1
p17
sV2010-05-02
p18
V52.9
p19
sV2010-05-03
p20
V53.6
p21
sV2016-09-02
p22
V
sV2010-05-01
p23
V52.2
p24
sV2017-08-24
p25
V75.7
p26
sV2017-08-25
p27
V74.7
p28
sV2017-08-26
p29
V74.5
p30
sV2017-08-27
p31
V73.8
p32
sV2016-05-31
p33
V
sV2016-05-30
p34
V
sV2017-08-22
p35
V76.3
p36
sV2017-08-23
p37
V75.7
p38
sV2017-08-28
p39
V73.0
p40
sV2017-08-29
p41
V72.9
p42
sV2014-08-09
p43
V73.8
p44
sV2014-08-08
p45
V74.1
p46
sV2014-08-01
p47
V72.1
p48
sV2014-08-03
p49
V72.0
p50
sV2014-08-02
p51
V71.2
p52
sV2014-08-05
p53
V72.5
p54
sV2014-08-04
p55
V72.1
p56
sV2014-08-07
p57
V73.8
p58
sV2014-08-06
p59
V73.9
p60
sV2011-05-07
p61
V53.4
p62
sV2011-05-06
p63
V53.8
p64
sV2011-05-05
p65
V52.5
p66
sV2011-05-04
p67
V52.0
p68
sV2011-05-03
p69
V51.8
p70
sV2011-05-02
p71
V51.8
p72
sV2011-05-01
p73
V52.7
p74
sV2011-05-09
p75
V52.7
p76
sV2011-05-08
p77
V52.2
p78
sV2009-10-31
p79
V62.2
p80
sV2009-10-30
p81
V61.7
p82
sV2011-06-30
p83
V72.1
p84
sV2011-10-01
p85
V69.6
p86
sV2011-10-03
p87
V68.5
p88
sV2011-10-02
p89
V69.1
p90
sV2011-10-05
p91
V67.8
p92
sV2011-10-04
p93
V67.8
p94
sV2011-10-07
p95
V66.0
p96
sV2011-10-06
p97
V66.7
p98
sV2011-10-09
p99
V66.6
p100
sV2011-10-08
p101
V66.0
p102
sV2015-06-24
p103
V70.2
p104
sV2013-10-29
p105
V58.8
p106
sV2013-10-28
p107
V59.4
p108
sV2011-08-09
p109
V76.8
p110
sV2013-10-25
p111
V60.8
p112
sV2013-10-24
p113
V62.1
p114
sV2013-10-27
p115
V59.7
p116
sV2013-10-26
p117
V59.9
p118
sV2013-10-21
p119
V64.0
p120
sV2013-10-20
p121
V64.2
p122
sV2013-10-23
p123
V62.4
p124
sV2013-10-22
p125
V63.3
p126
sV2012-07-15
p127
V75.9
p128
sV2012-07-14
p129
V75.2
p130
sV2012-07-17
p131
V75.6
p132
sV2012-07-16
p133
V75.7
p134
sV2012-07-11
p135
V74.5
p136
sV2012-07-10
p137
V74.3
p138
sV2012-07-13
p139
V75.6
p140
sV2012-07-12
p141
V74.7
p142
sV2012-07-19
p143
V73.8
p144
sV2012-07-18
p145
V75.2
p146
sV2017-06-28
p147
V67.6
p148
sV2017-06-29
p149
V68.4
p150
sV2011-08-01
p151
V75.4
p152
sV2016-06-09
p153
V
sV2016-06-08
p154
V
sV2009-06-27
p155
V71.6
p156
sV2009-06-26
p157
V70.9
p158
sV2009-06-25
p159
V71.6
p160
sV2009-06-24
p161
V70.3
p162
sV2008-06-08
p163
V63.9
p164
sV2009-06-22
p165
V70.3
p166
sV2009-06-21
p167
V70.3
p168
sV2009-06-20
p169
V70.0
p170
sV2008-06-04
p171
V61.2
p172
sV2008-06-05
p173
V61.0
p174
sV2008-06-06
p175
V61.3
p176
sV2008-06-07
p177
V62.2
p178
sV2008-06-01
p179
V61.0
p180
sV2009-06-29
p181
V72.0
p182
sV2009-06-28
p183
V71.6
p184
sV2017-06-22
p185
V69.8
p186
sV2017-06-23
p187
V68.7
p188
sV2016-06-07
p189
V
sV2015-05-03
p190
V50.7
p191
sV2015-05-02
p192
V49.8
p193
sV2015-05-01
p194
V49.0
p195
sV2016-06-06
p196
V
sV2015-05-07
p197
V52.9
p198
sV2015-05-06
p199
V52.4
p200
sV2015-05-05
p201
V52.1
p202
sV2015-05-04
p203
V51.6
p204
sV2017-06-26
p205
V69.1
p206
sV2015-05-09
p207
V53.8
p208
sV2015-05-08
p209
V54.0
p210
sV2017-06-24
p211
V68.9
p212
sV2017-06-25
p213
V68.4
p214
sV2008-05-12
p215
V57.2
p216
sV2008-05-13
p217
V57.2
p218
sV2008-05-10
p219
V57.6
p220
sV2008-05-11
p221
V57.9
p222
sV2008-05-16
p223
V58.3
p224
sV2008-05-17
p225
V59.0
p226
sV2008-05-14
p227
V58.1
p228
sV2008-05-15
p229
V58.5
p230
sV2008-05-18
p231
V58.6
p232
sV2008-05-19
p233
V58.6
p234
sV2013-06-30
p235
V71.2
p236
sV2009-05-02
p237
V57.2
p238
sV2009-05-03
p239
V57.9
p240
sV2013-05-30
p241
V59.0
p242
sV2013-05-31
p243
V60.3
p244
sV2016-05-03
p245
V
sV2016-10-08
p246
V68.2
p247
sV2016-10-09
p248
V67.8
p249
sV2016-10-06
p250
V68.4
p251
sV2016-10-07
p252
V68.5
p253
sV2016-10-04
p254
V68.5
p255
sV2016-10-05
p256
V68.5
p257
sV2016-10-02
p258
V68.9
p259
sV2016-10-03
p260
V68.7
p261
sV2016-10-01
p262
V69.6
p263
sV2016-09-13
p264
V
sV2016-09-12
p265
V
sV2016-09-11
p266
V
sV2016-09-10
p267
V
sV2010-05-19
p268
V53.2
p269
sV2010-05-18
p270
V52.9
p271
sV2016-09-15
p272
V
sV2016-09-14
p273
V
sV2010-05-15
p274
V52.5
p275
sV2010-05-14
p276
V51.8
p277
sV2010-05-17
p278
V52.9
p279
sV2010-05-16
p280
V53.1
p281
sV2010-05-11
p282
V52.2
p283
sV2010-05-10
p284
V53.8
p285
sV2010-05-13
p286
V51.3
p287
sV2010-05-12
p288
V50.4
p289
sV2014-07-17
p290
V71.1
p291
sV2008-09-26
p292
V71.6
p293
sV2008-09-25
p294
V72.1
p295
sV2014-07-14
p296
V69.6
p297
sV2014-07-13
p298
V69.4
p299
sV2008-09-22
p300
V72.9
p301
sV2016-05-08
p302
V
sV2016-05-09
p303
V
sV2014-07-11
p304
V69.8
p305
sV2016-05-01
p306
V
sV2016-05-02
p307
V
sV2014-07-10
p308
V70.2
p309
sV2016-05-04
p310
V
sV2016-05-05
p311
V
sV2016-05-06
p312
V
sV2016-05-07
p313
V
sV2016-06-18
p314
V
sV2016-06-19
p315
V
sV2016-06-16
p316
V
sV2016-06-17
p317
V
sV2016-06-14
p318
V
sV2016-06-15
p319
V
sV2014-08-30
p320
V74.3
p321
sV2014-08-31
p322
V74.1
p323
sV2016-06-10
p324
V
sV2016-06-11
p325
V
sV2014-07-19
p326
V71.4
p327
sV2008-09-28
p328
V71.6
p329
sV2015-09-30
p330
V71.1
p331
sV2012-05-02
p332
V54.5
p333
sV2011-10-30
p334
V56.1
p335
sV2011-10-31
p336
V55.8
p337
sV2013-10-10
p338
V66.2
p339
sV2012-07-29
p340
V74.8
p341
sV2013-10-12
p342
V65.8
p343
sV2013-10-13
p344
V65.5
p345
sV2013-10-14
p346
V65.3
p347
sV2013-10-15
p348
V65.5
p349
sV2013-10-16
p350
V65.1
p351
sV2013-10-17
p352
V65.5
p353
sV2013-10-18
p354
V65.3
p355
sV2013-10-19
p356
V64.6
p357
sV2012-07-22
p358
V72.7
p359
sV2012-07-23
p360
V73.2
p361
sV2012-07-24
p362
V74.5
p363
sV2012-07-25
p364
V74.7
p365
sV2012-07-26
p366
V74.5
p367
sV2012-07-27
p368
V74.8
p369
sV2014-11-01
p370
V59.5
p371
sV2012-10-03
p372
V68.4
p373
sV2008-06-13
p374
V68.9
p375
sV2008-06-12
p376
V68.7
p377
sV2008-06-11
p378
V66.4
p379
sV2008-06-10
p380
V65.3
p381
sV2008-06-17
p382
V68.7
p383
sV2008-06-16
p384
V68.5
p385
sV2008-06-15
p386
V68.2
p387
sV2008-06-14
p388
V68.9
p389
sV2008-06-19
p390
V69.4
p391
sV2008-06-18
p392
V68.9
p393
sV2012-10-07
p394
V67.8
p395
sV2012-10-05
p396
V68.7
p397
sV2008-05-01
p398
V55.6
p399
sV2013-06-01
p400
V61.3
p401
sV2013-06-02
p402
V62.4
p403
sV2013-06-03
p404
V63.9
p405
sV2013-06-04
p406
V62.8
p407
sV2013-06-05
p408
V62.1
p409
sV2013-06-06
p410
V62.1
p411
sV2013-06-07
p412
V60.4
p413
sV2013-06-08
p414
V61.3
p415
sV2013-06-09
p416
V63.5
p417
sV2014-07-28
p418
V74.3
p419
sV2014-07-29
p420
V73.9
p421
sV2009-11-01
p422
V61.9
p423
sV2008-09-17
p424
V74.2
p425
sV2014-07-24
p426
V73.9
p427
sV2014-07-25
p428
V74.3
p429
sV2014-07-22
p430
V72.7
p431
sV2008-09-13
p432
V75.2
p433
sV2014-07-20
p434
V70.9
p435
sV2014-07-21
p436
V72.9
p437
sV2013-05-29
p438
V58.6
p439
sV2013-05-28
p440
V58.6
p441
sV2013-05-27
p442
V58.6
p443
sV2013-05-26
p444
V59.5
p445
sV2013-05-25
p446
V59.2
p447
sV2013-05-24
p448
V59.4
p449
sV2013-05-23
p450
V59.5
p451
sV2013-05-22
p452
V58.3
p453
sV2013-05-21
p454
V58.3
p455
sV2013-05-20
p456
V58.3
p457
sV2016-09-04
p458
V
sV2012-07-31
p459
V75.4
p460
sV2016-09-05
p461
V
sV2012-07-30
p462
V75.6
p463
sV2016-09-06
p464
V
sV2016-09-07
p465
V
sV2016-09-01
p466
V
sV2016-10-19
p467
V65.7
p468
sV2016-10-18
p469
V65.1
p470
sV2016-10-15
p471
V65.3
p472
sV2016-10-14
p473
V65.7
p474
sV2016-10-17
p475
V65.1
p476
sV2016-09-03
p477
V
sV2016-10-11
p478
V66.6
p479
sV2016-10-10
p480
V67.1
p481
sV2016-10-13
p482
V66.0
p483
sV2016-10-12
p484
V66.0
p485
sV2010-05-20
p486
V53.8
p487
sV2010-05-21
p488
V54.9
p489
sV2010-05-22
p490
V56.5
p491
sV2010-05-23
p492
V57.2
p493
sV2010-05-24
p494
V58.3
p495
sV2010-05-25
p496
V59.5
p497
sV2010-05-26
p498
V60.4
p499
sV2010-05-27
p500
V61.0
p501
sV2010-05-28
p502
V61.5
p503
sV2010-05-29
p504
V61.5
p505
sV2008-10-30
p506
V59.5
p507
sV2008-10-31
p508
V59.7
p509
sV2016-05-19
p510
V
sV2016-05-18
p511
V
sV2016-05-17
p512
V
sV2016-05-16
p513
V
sV2016-05-15
p514
V
sV2016-05-14
p515
V
sV2016-05-13
p516
V
sV2016-05-12
p517
V
sV2016-05-11
p518
V
sV2016-05-10
p519
V
sV2014-08-23
p520
V73.0
p521
sV2014-08-22
p522
V73.2
p523
sV2014-08-21
p524
V74.1
p525
sV2014-08-20
p526
V73.6
p527
sV2014-08-27
p528
V75.6
p529
sV2014-08-26
p530
V75.0
p531
sV2014-08-25
p532
V73.9
p533
sV2014-08-24
p534
V73.2
p535
sV2016-06-05
p536
V
sV2016-06-04
p537
V
sV2014-08-29
p538
V74.5
p539
sV2014-08-28
p540
V75.2
p541
sV2016-06-01
p542
V
sV2017-06-27
p543
V68.2
p544
sV2016-06-03
p545
V
sV2016-06-02
p546
V
sV2015-09-29
p547
V71.4
p548
sV2015-09-28
p549
V71.1
p550
sV2015-09-25
p551
V72.0
p552
sV2015-09-24
p553
V72.0
p554
sV2015-09-27
p555
V70.7
p556
sV2015-09-26
p557
V71.4
p558
sV2015-09-21
p559
V72.7
p560
sV2015-09-20
p561
V73.4
p562
sV2015-09-23
p563
V72.3
p564
sV2015-09-22
p565
V72.0
p566
sV2011-08-26
p567
V73.4
p568
sV2011-08-27
p569
V71.8
p570
sV2011-08-24
p571
V73.4
p572
sV2011-08-25
p573
V72.7
p574
sV2011-08-22
p575
V74.1
p576
sV2011-08-23
p577
V73.6
p578
sV2011-08-20
p579
V74.8
p580
sV2011-08-21
p581
V75.4
p582
sV2011-08-28
p583
V71.4
p584
sV2011-08-29
p585
V75.6
p586
sV2017-11-01
p587
V62.1
p588
sV2013-10-07
p589
V67.5
p590
sV2013-10-06
p591
V67.6
p592
sV2013-10-05
p593
V67.8
p594
sV2013-10-04
p595
V67.6
p596
sV2013-10-03
p597
V67.3
p598
sV2013-10-02
p599
V67.1
p600
sV2013-10-01
p601
V66.7
p602
sV2013-10-09
p603
V66.9
p604
sV2013-10-08
p605
V67.5
p606
sV2015-06-02
p607
V59.5
p608
sV2015-06-03
p609
V60.3
p610
sV2011-10-29
p611
V57.2
p612
sV2015-06-01
p613
V60.6
p614
sV2015-06-06
p615
V61.0
p616
sV2015-06-07
p617
V62.1
p618
sV2015-06-04
p619
V60.3
p620
sV2015-06-05
p621
V60.6
p622
sV2011-10-23
p623
V62.2
p624
sV2011-10-22
p625
V62.0
p626
sV2011-10-21
p627
V62.6
p628
sV2015-06-09
p629
V62.8
p630
sV2011-10-27
p631
V59.0
p632
sV2011-10-26
p633
V59.7
p634
sV2011-10-25
p635
V60.6
p636
sV2011-10-24
p637
V61.2
p638
sV2013-06-17
p639
V65.3
p640
sV2013-06-16
p641
V65.5
p642
sV2013-06-15
p643
V65.7
p644
sV2013-06-14
p645
V64.9
p646
sV2013-06-13
p647
V66.0
p648
sV2013-06-12
p649
V66.6
p650
sV2013-06-11
p651
V66.4
p652
sV2013-06-10
p653
V63.3
p654
sV2013-06-19
p655
V67.3
p656
sV2013-06-18
p657
V67.3
p658
sV2012-09-26
p659
V69.6
p660
sV2012-09-27
p661
V69.8
p662
sV2012-09-24
p663
V70.2
p664
sV2011-10-28
p665
V58.5
p666
sV2012-09-22
p667
V70.5
p668
sV2012-09-23
p669
V70.3
p670
sV2012-09-20
p671
V69.8
p672
sV2012-09-21
p673
V70.3
p674
sV2008-09-05
p675
V77.5
p676
sV2008-09-04
p677
V77.2
p678
sV2008-09-07
p679
V78.4
p680
sV2008-09-06
p681
V77.9
p682
sV2014-07-31
p683
V72.9
p684
sV2014-07-30
p685
V73.0
p686
sV2012-09-28
p687
V69.4
p688
sV2012-09-29
p689
V69.3
p690
sV2015-06-08
p691
V62.1
p692
sV2011-10-20
p693
V63.3
p694
sV2017-09-30
p695
V72.0
p696
sV2014-10-28
p697
V60.2
p698
sV2012-06-06
p699
V66.7
p700
sV2014-10-26
p701
V60.8
p702
sV2012-06-08
p703
V67.6
p704
sV2008-08-11
p705
V77.5
p706
sV2009-05-27
p707
V62.6
p708
sV2009-05-24
p709
V62.6
p710
sV2016-10-20
p711
V65.5
p712
sV2016-10-21
p713
V65.8
p714
sV2016-10-22
p715
V65.5
p716
sV2008-08-12
p717
V76.8
p718
sV2016-10-24
p719
V63.9
p720
sV2016-10-25
p721
V62.8
p722
sV2016-10-26
p723
V61.7
p724
sV2016-10-27
p725
V60.6
p726
sV2016-10-28
p727
V60.3
p728
sV2008-08-15
p729
V76.3
p730
sV2008-08-14
p731
V77.2
p732
sV2008-08-17
p733
V76.5
p734
sV2009-05-21
p735
V62.2
p736
sV2010-05-31
p737
V63.7
p738
sV2010-05-30
p739
V63.5
p740
sV2008-10-21
p741
V64.8
p742
sV2008-10-20
p743
V65.4
p744
sV2008-10-23
p745
V63.3
p746
sV2008-10-22
p747
V64.2
p748
sV2008-10-25
p749
V62.5
p750
sV2008-10-24
p751
V62.6
p752
sV2008-10-27
p753
V62.7
p754
sV2008-10-26
p755
V62.8
p756
sV2008-10-29
p757
V60.1
p758
sV2008-10-28
p759
V61.2
p760
sV2008-05-30
p761
V61.2
p762
sV2008-05-31
p763
V60.4
p764
sV2016-06-30
p765
V
sV2017-06-30
p766
V67.5
p767
sV2013-08-25
p768
V72.3
p769
sV2015-09-10
p770
V77.2
p771
sV2015-09-11
p772
V76.8
p773
sV2015-09-12
p774
V75.9
p775
sV2015-09-13
p776
V76.1
p777
sV2015-09-14
p778
V75.0
p779
sV2015-09-15
p780
V74.7
p781
sV2015-09-16
p782
V74.8
p783
sV2015-09-17
p784
V74.3
p785
sV2015-09-18
p786
V74.1
p787
sV2015-09-19
p788
V73.6
p789
sV2008-09-08
p790
V78.1
p791
sV2011-08-31
p792
V75.0
p793
sV2011-08-30
p794
V75.6
p795
sV2009-08-30
p796
V78.1
p797
sV2009-08-31
p798
V77.4
p799
sV2008-09-01
p800
V76.3
p801
sV2016-10-29
p802
V59.5
p803
sV2008-09-03
p804
V76.8
p805
sV2008-09-02
p806
V76.6
p807
sV2017-06-09
p808
V62.8
p809
sV2015-06-11
p810
V64.4
p811
sV2015-06-10
p812
V63.9
p813
sV2012-05-28
p814
V65.3
p815
sV2012-05-29
p816
V66.7
p817
sV2015-06-15
p818
V67.6
p819
sV2015-06-14
p820
V68.4
p821
sV2015-06-17
p822
V68.2
p823
sV2015-06-16
p824
V67.5
p825
sV2012-05-22
p826
V61.5
p827
sV2012-05-23
p828
V61.9
p829
sV2012-05-20
p830
V60.4
p831
sV2012-05-21
p832
V60.8
p833
sV2012-05-26
p834
V63.9
p835
sV2012-05-27
p836
V64.8
p837
sV2012-05-24
p838
V62.8
p839
sV2012-05-25
p840
V63.5
p841
sV2008-05-29
p842
V59.0
p843
sV2008-05-28
p844
V59.5
p845
sV2008-05-23
p846
V58.6
p847
sV2008-05-22
p848
V57.7
p849
sV2008-05-21
p850
V59.0
p851
sV2008-05-20
p852
V57.9
p853
sV2008-05-27
p854
V58.3
p855
sV2008-05-26
p856
V57.7
p857
sV2008-05-25
p858
V57.9
p859
sV2008-05-24
p860
V58.1
p861
sV2008-09-30
p862
V72.3
p863
sV2014-07-01
p864
V72.1
p865
sV2014-07-02
p866
V72.0
p867
sV2014-07-03
p868
V72.5
p869
sV2014-07-04
p870
V72.3
p871
sV2012-09-30
p872
V68.9
p873
sV2014-07-06
p874
V69.3
p875
sV2014-07-07
p876
V70.2
p877
sV2014-07-08
p878
V71.2
p879
sV2014-07-09
p880
V70.2
p881
sV2012-09-25
p882
V70.0
p883
sV2009-10-20
p884
V60.4
p885
sV2016-10-31
p886
V59.2
p887
sV2016-10-30
p888
V59.5
p889
sV2009-10-21
p890
V60.6
p891
sV2008-10-14
p892
V68.4
p893
sV2008-10-15
p894
V68.4
p895
sV2008-10-16
p896
V68.4
p897
sV2008-10-17
p898
V67.8
p899
sV2008-10-10
p900
V68.2
p901
sV2008-10-11
p902
V68.4
p903
sV2008-10-12
p904
V68.4
p905
sV2008-10-13
p906
V68.2
p907
sV2008-10-18
p908
V67.1
p909
sV2008-10-19
p910
V66.0
p911
sV2016-06-27
p912
V
sV2016-06-26
p913
V
sV2016-06-25
p914
V
sV2016-06-24
p915
V
sV2016-06-23
p916
V
sV2016-06-22
p917
V
sV2016-06-21
p918
V
sV2016-06-20
p919
V
sV2017-06-04
p920
V62.8
p921
sV2017-06-05
p922
V62.4
p923
sV2017-06-06
p924
V61.7
p925
sV2017-06-07
p926
V61.5
p927
sV2017-06-01
p928
V61.5
p929
sV2016-06-29
p930
V
sV2016-06-28
p931
V
sV2017-05-12
p932
V55.6
p933
sV2017-05-13
p934
V54.9
p935
sV2017-05-10
p936
V55.6
p937
sV2017-05-11
p938
V55.6
p939
sV2017-05-16
p940
V56.3
p941
sV2017-05-17
p942
V56.5
p943
sV2017-05-14
p944
V56.1
p945
sV2017-05-15
p946
V56.3
p947
sV2017-05-18
p948
V56.8
p949
sV2017-05-19
p950
V56.8
p951
sV2015-09-07
p952
V76.8
p953
sV2015-09-06
p954
V76.3
p955
sV2015-09-05
p956
V76.1
p957
sV2015-09-04
p958
V76.1
p959
sV2015-09-03
p960
V76.1
p961
sV2015-09-02
p962
V75.6
p963
sV2015-09-01
p964
V75.7
p965
sV2015-09-09
p966
V77.7
p967
sV2015-09-08
p968
V77.4
p969
sV2009-08-29
p970
V78.3
p971
sV2009-08-28
p972
V79.0
p973
sV2009-08-25
p974
V80.2
p975
sV2009-08-24
p976
V80.1
p977
sV2009-08-27
p978
V79.5
p979
sV2009-08-26
p980
V80.0
p981
sV2009-08-21
p982
V80.4
p983
sV2009-08-20
p984
V80.2
p985
sV2009-08-23
p986
V79.7
p987
sV2009-08-22
p988
V79.9
p989
sV2011-08-08
p990
V76.1
p991
sV2015-06-25
p992
V69.8
p993
sV2015-06-26
p994
V70.9
p995
sV2015-06-27
p996
V69.6
p997
sV2015-06-20
p998
V67.8
p999
sV2015-06-21
p1000
V69.4
p1001
sV2015-06-22
p1002
V69.1
p1003
sV2015-06-23
p1004
V70.2
p1005
sV2012-05-31
p1006
V68.2
p1007
sV2012-05-30
p1008
V66.4
p1009
sV2011-08-02
p1010
V75.7
p1011
sV2011-08-03
p1012
V75.4
p1013
sV2015-06-28
p1014
V67.8
p1015
sV2011-08-05
p1016
V75.4
p1017
sV2011-08-06
p1018
V75.7
p1019
sV2011-08-07
p1020
V75.9
p1021
sV2009-07-02
p1022
V73.8
p1023
sV2009-07-03
p1024
V73.4
p1025
sV2009-07-01
p1026
V73.0
p1027
sV2009-07-06
p1028
V72.5
p1029
sV2009-07-07
p1030
V72.1
p1031
sV2009-07-04
p1032
V73.6
p1033
sV2009-07-05
p1034
V72.7
p1035
sV2009-07-08
p1036
V72.0
p1037
sV2009-07-09
p1038
V71.4
p1039
sV2012-09-08
p1040
V77.0
p1041
sV2012-09-09
p1042
V76.6
p1043
sV2012-09-01
p1044
V77.0
p1045
sV2012-09-02
p1046
V76.8
p1047
sV2012-09-03
p1048
V76.3
p1049
sV2012-09-04
p1050
V76.3
p1051
sV2012-09-05
p1052
V76.3
p1053
sV2012-09-06
p1054
V76.3
p1055
sV2012-09-07
p1056
V76.6
p1057
sV2008-09-27
p1058
V71.5
p1059
sV2014-07-16
p1060
V70.2
p1061
sV2014-07-15
p1062
V69.6
p1063
sV2008-09-24
p1064
V73.2
p1065
sV2008-09-23
p1066
V72.7
p1067
sV2014-07-12
p1068
V69.8
p1069
sV2008-09-21
p1070
V72.8
p1071
sV2008-09-20
p1072
V72.9
p1073
sV2008-09-29
p1074
V71.7
p1075
sV2014-07-18
p1076
V70.5
p1077
sV2014-06-03
p1078
V62.4
p1079
sV2012-10-08
p1080
V67.1
p1081
sV2012-10-09
p1082
V66.7
p1083
sV2014-06-02
p1084
V63.1
p1085
sV2012-10-02
p1086
V68.0
p1087
sV2009-06-23
p1088
V70.3
p1089
sV2012-10-01
p1090
V68.4
p1091
sV2012-10-06
p1092
V69.3
p1093
sV2012-08-16
p1094
V75.4
p1095
sV2012-10-04
p1096
V68.4
p1097
sV2008-06-09
p1098
V64.8
p1099
sV2017-08-02
p1100
V75.7
p1101
sV2017-08-03
p1102
V75.7
p1103
sV2014-06-07
p1104
V63.9
p1105
sV2012-08-11
p1106
V77.2
p1107
sV2017-08-01
p1108
V74.5
p1109
sV2014-06-05
p1110
V62.9
p1111
sV2017-08-06
p1112
V75.2
p1113
sV2014-06-04
p1114
V62.7
p1115
sV2017-08-07
p1116
V74.1
p1117
sV2017-08-04
p1118
V76.5
p1119
sV2016-08-06
p1120
V
sV2017-08-05
p1121
V75.6
p1122
sV2008-06-02
p1123
V61.3
p1124
sV2008-06-03
p1125
V61.5
p1126
sV2017-08-08
p1127
V73.6
p1128
sV2017-08-09
p1129
V73.6
p1130
sV2010-07-22
p1131
V77.9
p1132
sV2010-07-23
p1133
V76.8
p1134
sV2010-07-20
p1135
V77.4
p1136
sV2010-07-21
p1137
V78.1
p1138
sV2010-07-26
p1139
V76.1
p1140
sV2010-07-27
p1141
V75.9
p1142
sV2010-07-24
p1143
V77.0
p1144
sV2010-07-25
p1145
V76.8
p1146
sV2010-07-28
p1147
V74.5
p1148
sV2010-07-29
p1149
V73.9
p1150
sV2013-07-30
p1151
V74.5
p1152
sV2013-07-31
p1153
V74.1
p1154
sV2011-07-12
p1155
V75.0
p1156
sV2011-07-13
p1157
V74.5
p1158
sV2011-07-10
p1159
V73.4
p1160
sV2011-07-11
p1161
V74.7
p1162
sV2011-07-16
p1163
V73.0
p1164
sV2011-07-17
p1165
V73.0
p1166
sV2011-07-14
p1167
V73.9
p1168
sV2011-07-15
p1169
V73.0
p1170
sV2011-07-18
p1171
V74.3
p1172
sV2011-07-19
p1173
V73.2
p1174
sV2008-10-09
p1175
V68.0
p1176
sV2008-10-08
p1177
V68.0
p1178
sV2008-10-03
p1179
V70.1
p1180
sV2008-10-02
p1181
V71.1
p1182
sV2008-10-01
p1183
V71.6
p1184
sV2008-10-07
p1185
V68.1
p1186
sV2008-10-06
p1187
V69.1
p1188
sV2008-10-05
p1189
V69.4
p1190
sV2008-10-04
p1191
V69.9
p1192
sV2008-09-09
p1193
V77.5
p1194
sV2017-06-13
p1195
V66.7
p1196
sV2017-06-12
p1197
V65.3
p1198
sV2017-06-11
p1199
V64.2
p1200
sV2017-06-10
p1201
V63.5
p1202
sV2017-06-17
p1203
V65.3
p1204
sV2017-06-16
p1205
V64.9
p1206
sV2017-06-15
p1207
V66.7
p1208
sV2017-06-14
p1209
V66.0
p1210
sV2017-06-19
p1211
V66.9
p1212
sV2017-06-18
p1213
V65.8
p1214
sV2017-05-01
p1215
V53.6
p1216
sV2017-05-03
p1217
V54.9
p1218
sV2017-05-02
p1219
V54.5
p1220
sV2017-05-05
p1221
V55.0
p1222
sV2017-05-04
p1223
V56.7
p1224
sV2017-05-07
p1225
V55.6
p1226
sV2017-05-06
p1227
V55.4
p1228
sV2017-05-09
p1229
V55.8
p1230
sV2017-05-08
p1231
V55.9
p1232
sV2016-10-23
p1233
V64.4
p1234
sV2016-11-01
p1235
V59.0
p1236
sV2009-08-10
p1237
V75.4
p1238
sV2009-08-11
p1239
V75.7
p1240
sV2009-08-12
p1241
V75.4
p1242
sV2009-08-13
p1243
V75.6
p1244
sV2009-08-14
p1245
V76.3
p1246
sV2009-08-15
p1247
V76.6
p1248
sV2009-08-16
p1249
V78.1
p1250
sV2009-08-17
p1251
V79.3
p1252
sV2009-08-18
p1253
V79.3
p1254
sV2009-08-19
p1255
V79.7
p1256
sV2013-08-08
p1257
V72.1
p1258
sV2013-08-09
p1259
V72.5
p1260
sV2013-08-06
p1261
V73.4
p1262
sV2013-08-07
p1263
V72.5
p1264
sV2013-08-04
p1265
V73.8
p1266
sV2013-08-05
p1267
V73.0
p1268
sV2013-08-02
p1269
V74.3
p1270
sV2013-08-03
p1271
V73.8
p1272
sV2013-08-01
p1273
V74.5
p1274
sV2017-07-10
p1275
V71.6
p1276
sV2017-07-11
p1277
V71.1
p1278
sV2017-07-12
p1279
V72.1
p1280
sV2017-07-13
p1281
V72.7
p1282
sV2017-07-14
p1283
V72.1
p1284
sV2017-07-15
p1285
V72.0
p1286
sV2017-07-16
p1287
V73.0
p1288
sV2017-07-17
p1289
V73.4
p1290
sV2017-07-19
p1291
V75.7
p1292
sV2014-07-27
p1293
V73.8
p1294
sV2015-06-30
p1295
V68.9
p1296
sV2012-05-08
p1297
V56.1
p1298
sV2012-05-09
p1299
V56.7
p1300
sV2011-08-19
p1301
V74.7
p1302
sV2011-08-18
p1303
V74.7
p1304
sV2011-08-17
p1305
V75.2
p1306
sV2011-08-16
p1307
V73.9
p1308
sV2011-08-15
p1309
V74.1
p1310
sV2012-05-07
p1311
V56.5
p1312
sV2011-08-13
p1313
V76.3
p1314
sV2011-08-12
p1315
V76.1
p1316
sV2011-08-11
p1317
V76.6
p1318
sV2011-08-10
p1319
V77.2
p1320
sV2009-07-11
p1321
V71.6
p1322
sV2009-07-10
p1323
V71.8
p1324
sV2009-07-13
p1325
V72.3
p1326
sV2009-07-12
p1327
V71.8
p1328
sV2009-07-15
p1329
V72.3
p1330
sV2009-07-14
p1331
V71.9
p1332
sV2009-07-17
p1333
V72.1
p1334
sV2009-07-16
p1335
V72.5
p1336
sV2009-07-19
p1337
V73.6
p1338
sV2009-07-18
p1339
V73.8
p1340
sV2012-09-19
p1341
V71.1
p1342
sV2012-09-18
p1343
V70.7
p1344
sV2012-09-17
p1345
V72.0
p1346
sV2012-09-16
p1347
V72.3
p1348
sV2012-09-15
p1349
V73.0
p1350
sV2012-09-14
p1351
V73.2
p1352
sV2012-09-13
p1353
V73.9
p1354
sV2012-09-12
p1355
V74.1
p1356
sV2012-09-11
p1357
V75.4
p1358
sV2012-09-10
p1359
V76.3
p1360
sV2015-10-16
p1361
V64.6
p1362
sV2015-10-17
p1363
V64.0
p1364
sV2015-10-14
p1365
V65.5
p1366
sV2015-10-15
p1367
V64.9
p1368
sV2015-10-12
p1369
V65.5
p1370
sV2015-10-13
p1371
V65.5
p1372
sV2015-10-10
p1373
V65.7
p1374
sV2011-11-01
p1375
V55.4
p1376
sV2015-10-18
p1377
V62.4
p1378
sV2015-10-19
p1379
V61.9
p1380
sV2012-10-19
p1381
V60.4
p1382
sV2012-10-18
p1383
V61.0
p1384
sV2012-10-11
p1385
V65.1
p1386
sV2012-10-10
p1387
V66.4
p1388
sV2012-10-13
p1389
V64.0
p1390
sV2012-10-12
p1391
V64.2
p1392
sV2012-10-15
p1393
V63.1
p1394
sV2012-10-14
p1395
V63.3
p1396
sV2012-10-17
p1397
V62.1
p1398
sV2012-10-16
p1399
V62.8
p1400
sV2017-10-30
p1401
V64.0
p1402
sV2017-10-31
p1403
V62.6
p1404
sV2010-07-31
p1405
V73.2
p1406
sV2010-07-30
p1407
V73.8
p1408
sV2017-06-20
p1409
V68.7
p1410
sV2013-07-21
p1411
V76.6
p1412
sV2013-07-20
p1413
V77.0
p1414
sV2013-07-23
p1415
V76.6
p1416
sV2013-07-22
p1417
V75.9
p1418
sV2013-07-25
p1419
V75.2
p1420
sV2013-07-24
p1421
V76.5
p1422
sV2013-07-27
p1423
V74.5
p1424
sV2013-07-26
p1425
V
sV2013-07-29
p1426
V74.7
p1427
sV2013-07-28
p1428
V74.5
p1429
sV2017-06-21
p1430
V69.4
p1431
sV2011-07-01
p1432
V72.1
p1433
sV2011-07-03
p1434
V71.2
p1435
sV2011-07-02
p1436
V72.5
p1437
sV2011-07-05
p1438
V71.6
p1439
sV2011-07-04
p1440
V71.2
p1441
sV2011-07-07
p1442
V72.3
p1443
sV2011-07-06
p1444
V72.0
p1445
sV2011-07-09
p1446
V72.3
p1447
sV2011-07-08
p1448
V72.9
p1449
sV2017-05-30
p1450
V60.3
p1451
sV2017-05-31
p1452
V60.8
p1453
sV2012-06-12
p1454
V68.0
p1455
sV2012-06-13
p1456
V68.7
p1457
sV2012-06-10
p1458
V68.0
p1459
sV2012-06-11
p1460
V68.2
p1461
sV2012-06-16
p1462
V70.3
p1463
sV2012-06-17
p1464
V69.8
p1465
sV2012-06-14
p1466
V69.4
p1467
sV2012-06-15
p1468
V69.4
p1469
sV2017-09-05
p1470
V71.4
p1471
sV2017-09-04
p1472
V71.6
p1473
sV2012-06-18
p1474
V70.7
p1475
sV2012-06-19
p1476
V70.3
p1477
sV2017-09-01
p1478
V72.1
p1479
sV2017-09-03
p1480
V71.1
p1481
sV2017-09-02
p1482
V71.8
p1483
sV2009-08-07
p1484
V77.0
p1485
sV2009-08-06
p1486
V77.4
p1487
sV2015-08-28
p1488
V76.5
p1489
sV2009-08-04
p1490
V77.9
p1491
sV2009-08-03
p1492
V78.8
p1493
sV2009-08-02
p1494
V78.3
p1495
sV2009-08-01
p1496
V79.2
p1497
sV2015-08-22
p1498
V76.5
p1499
sV2015-08-23
p1500
V76.3
p1501
sV2015-08-20
p1502
V75.9
p1503
sV2015-08-21
p1504
V75.9
p1505
sV2015-08-26
p1506
V77.2
p1507
sV2015-08-27
p1508
V76.6
p1509
sV2009-08-09
p1510
V76.1
p1511
sV2015-08-25
p1512
V77.4
p1513
sV2013-08-19
p1514
V71.6
p1515
sV2013-08-18
p1516
V72.1
p1517
sV2013-08-15
p1518
V72.3
p1519
sV2013-08-14
p1520
V72.5
p1521
sV2013-08-17
p1522
V73.0
p1523
sV2013-08-16
p1524
V72.1
p1525
sV2013-08-11
p1526
V73.6
p1527
sV2013-08-10
p1528
V73.4
p1529
sV2013-08-13
p1530
V72.7
p1531
sV2013-08-12
p1532
V73.4
p1533
sV2008-09-16
p1534
V74.7
p1535
sV2012-05-04
p1536
V54.9
p1537
sV2012-05-05
p1538
V55.0
p1539
sV2012-05-06
p1540
V56.1
p1541
sV2011-08-14
p1542
V74.7
p1543
sV2012-05-01
p1544
V54.7
p1545
sV2012-05-13
p1546
V57.7
p1547
sV2012-05-12
p1548
V57.7
p1549
sV2012-05-11
p1550
V57.2
p1551
sV2012-05-10
p1552
V57.2
p1553
sV2012-05-17
p1554
V60.3
p1555
sV2012-05-16
p1556
V59.2
p1557
sV2012-05-15
p1558
V59.0
p1559
sV2012-05-14
p1560
V58.6
p1561
sV2012-05-19
p1562
V60.4
p1563
sV2012-05-18
p1564
V59.5
p1565
sV2009-07-24
p1566
V72.9
p1567
sV2009-07-25
p1568
V73.6
p1569
sV2009-07-26
p1570
V74.5
p1571
sV2009-07-27
p1572
V75.4
p1573
sV2009-07-20
p1574
V73.2
p1575
sV2009-07-21
p1576
V72.3
p1577
sV2009-07-22
p1578
V73.4
p1579
sV2009-07-23
p1580
V72.7
p1581
sV2009-07-28
p1582
V76.1
p1583
sV2009-07-29
p1584
V76.8
p1585
sV2013-11-01
p1586
V58.6
p1587
sV2015-10-05
p1588
V65.7
p1589
sV2015-10-04
p1590
V66.4
p1591
sV2015-10-07
p1592
V65.7
p1593
sV2015-10-06
p1594
V65.5
p1595
sV2015-10-01
p1596
V70.3
p1597
sV2015-10-03
p1598
V67.3
p1599
sV2015-10-02
p1600
V68.9
p1601
sV2015-10-09
p1602
V65.7
p1603
sV2015-10-08
p1604
V65.8
p1605
sV2012-10-28
p1606
V60.1
p1607
sV2012-10-29
p1608
V59.7
p1609
sV2012-10-24
p1610
V61.5
p1611
sV2012-10-25
p1612
V61.0
p1613
sV2012-10-26
p1614
V61.0
p1615
sV2012-10-27
p1616
V60.6
p1617
sV2012-10-20
p1618
V61.9
p1619
sV2012-10-21
p1620
V61.7
p1621
sV2012-10-22
p1622
V61.7
p1623
sV2012-10-23
p1624
V61.5
p1625
sV2017-10-21
p1626
V65.8
p1627
sV2017-10-20
p1628
V65.8
p1629
sV2017-10-23
p1630
V65.3
p1631
sV2017-10-22
p1632
V65.1
p1633
sV2017-10-25
p1634
V65.7
p1635
sV2017-10-24
p1636
V65.3
p1637
sV2017-10-27
p1638
V64.8
p1639
sV2017-10-26
p1640
V65.3
p1641
sV2017-10-29
p1642
V64.4
p1643
sV2017-10-28
p1644
V64.4
p1645
sV2014-06-30
p1646
V72.5
p1647
sV2008-07-30
p1648
V78.1
p1649
sV2008-07-31
p1650
V77.7
p1651
sV2008-06-23
p1652
V69.6
p1653
sV2010-07-04
p1654
V69.6
p1655
sV2010-07-05
p1656
V70.2
p1657
sV2010-07-06
p1658
V69.8
p1659
sV2010-07-07
p1660
V73.6
p1661
sV2010-07-01
p1662
V71.2
p1663
sV2010-07-02
p1664
V70.0
p1665
sV2010-07-03
p1666
V70.0
p1667
sV2010-07-08
p1668
V72.1
p1669
sV2010-07-09
p1670
V72.1
p1671
sV2013-07-14
p1672
V70.5
p1673
sV2013-07-15
p1674
V71.8
p1675
sV2013-07-16
p1676
V72.3
p1677
sV2013-07-17
p1678
V73.4
p1679
sV2013-07-10
p1680
V72.5
p1681
sV2013-07-11
p1682
V72.5
p1683
sV2013-07-12
p1684
V69.6
p1685
sV2013-07-13
p1686
V69.8
p1687
sV2013-07-18
p1688
V76.3
p1689
sV2013-07-19
p1690
V76.6
p1691
sV2009-06-06
p1692
V66.0
p1693
sV2011-07-30
p1694
V74.5
p1695
sV2011-07-31
p1696
V75.6
p1697
sV2009-06-01
p1698
V65.1
p1699
sV2016-08-30
p1700
V
sV2016-08-31
p1701
V
sV2008-06-24
p1702
V69.6
p1703
sV2009-06-02
p1704
V66.7
p1705
sV2015-05-29
p1706
V62.4
p1707
sV2013-05-17
p1708
V56.7
p1709
sV2017-05-29
p1710
V60.1
p1711
sV2017-05-28
p1712
V59.9
p1713
sV2017-05-23
p1714
V58.3
p1715
sV2017-05-22
p1716
V57.6
p1717
sV2017-05-21
p1718
V59.0
p1719
sV2017-05-20
p1720
V58.5
p1721
sV2017-05-27
p1722
V59.4
p1723
sV2017-05-26
p1724
V59.2
p1725
sV2017-05-25
p1726
V57.9
p1727
sV2017-05-24
p1728
V58.3
p1729
sV2015-10-11
p1730
V65.3
p1731
sV2012-06-01
p1732
V68.0
p1733
sV2012-06-03
p1734
V67.8
p1735
sV2012-06-02
p1736
V68.2
p1737
sV2012-06-05
p1738
V66.6
p1739
sV2012-06-04
p1740
V67.1
p1741
sV2012-06-07
p1742
V67.1
p1743
sV2014-10-29
p1744
V60.4
p1745
sV2012-06-09
p1746
V67.5
p1747
sV2014-10-27
p1748
V60.3
p1749
sV2014-10-24
p1750
V61.3
p1751
sV2014-10-25
p1752
V61.3
p1753
sV2014-10-22
p1754
V63.0
p1755
sV2014-10-23
p1756
V61.9
p1757
sV2014-10-20
p1758
V63.5
p1759
sV2014-10-21
p1760
V63.5
p1761
sV2015-08-31
p1762
V76.1
p1763
sV2015-08-30
p1764
V76.3
p1765
sV2013-08-20
p1766
V72.3
p1767
sV2013-08-21
p1768
V72.3
p1769
sV2013-08-22
p1770
V72.3
p1771
sV2013-08-23
p1772
V72.7
p1773
sV2013-08-24
p1774
V72.1
p1775
sV2013-05-18
p1776
V56.7
p1777
sV2013-08-26
p1778
V73.2
p1779
sV2013-08-27
p1780
V72.5
p1781
sV2013-08-28
p1782
V72.7
p1783
sV2013-08-29
p1784
V72.5
p1785
sV2013-05-19
p1786
V56.1
p1787
sV2011-08-04
p1788
V75.0
p1789
sV2011-09-30
p1790
V69.8
p1791
sV2017-10-14
p1792
V69.2
p1793
sV2017-10-15
p1794
V69.0
p1795
sV2017-10-16
p1796
V68.4
p1797
sV2017-10-17
p1798
V67.5
p1799
sV2017-10-10
p1800
V70.3
p1801
sV2017-10-11
p1802
V70.4
p1803
sV2017-10-12
p1804
V69.9
p1805
sV2017-10-13
p1806
V68.9
p1807
sV2017-10-18
p1808
V66.7
p1809
sV2017-10-19
p1810
V66.6
p1811
sV2017-07-30
p1812
V74.1
p1813
sV2009-07-31
p1814
V78.6
p1815
sV2009-07-30
p1816
V77.2
p1817
sV2014-06-21
p1818
V68.2
p1819
sV2014-06-20
p1820
V68.5
p1821
sV2014-06-23
p1822
V69.6
p1823
sV2014-06-22
p1824
V69.3
p1825
sV2014-06-25
p1826
V70.3
p1827
sV2014-06-24
p1828
V70.0
p1829
sV2014-06-27
p1830
V71.1
p1831
sV2014-06-26
p1832
V70.7
p1833
sV2014-06-29
p1834
V71.2
p1835
sV2014-06-28
p1836
V71.2
p1837
sV2008-07-29
p1838
V78.8
p1839
sV2008-07-28
p1840
V77.7
p1841
sV2008-07-25
p1842
V76.6
p1843
sV2008-07-24
p1844
V76.6
p1845
sV2008-07-27
p1846
V77.2
p1847
sV2008-07-26
p1848
V77.7
p1849
sV2008-07-21
p1850
V75.0
p1851
sV2008-07-20
p1852
V74.8
p1853
sV2008-07-23
p1854
V74.8
p1855
sV2008-07-22
p1856
V75.6
p1857
sV2014-05-08
p1858
V52.2
p1859
sV2014-05-09
p1860
V52.4
p1861
sV2014-05-02
p1862
V51.6
p1863
sV2014-05-03
p1864
V51.9
p1865
sV2014-05-01
p1866
V50.7
p1867
sV2014-05-06
p1868
V50.9
p1869
sV2014-05-07
p1870
V50.8
p1871
sV2014-05-04
p1872
V52.0
p1873
sV2014-05-05
p1874
V51.9
p1875
sV2015-10-30
p1876
V59.7
p1877
sV2015-10-31
p1878
V59.0
p1879
sV2016-09-16
p1880
V
sV2016-09-19
p1881
V73.4
p1882
sV2013-07-09
p1883
V72.0
p1884
sV2013-07-08
p1885
V71.6
p1886
sV2013-07-03
p1887
V72.3
p1888
sV2013-07-02
p1889
V72.3
p1890
sV2013-07-01
p1891
V71.2
p1892
sV2013-07-07
p1893
V71.1
p1894
sV2013-07-06
p1895
V70.7
p1896
sV2013-07-05
p1897
V71.6
p1898
sV2013-07-04
p1899
V72.0
p1900
sV2012-08-30
p1901
V76.6
p1902
sV2012-08-31
p1903
V77.0
p1904
sV2016-08-29
p1905
V
sV2016-08-28
p1906
V
sV2016-08-25
p1907
V
sV2016-08-24
p1908
V
sV2016-08-27
p1909
V
sV2016-08-26
p1910
V
sV2016-08-21
p1911
V
sV2016-08-20
p1912
V
sV2016-08-23
p1913
V
sV2016-08-22
p1914
V
sV2010-07-19
p1915
V77.0
p1916
sV2010-07-18
p1917
V76.5
p1918
sV2010-07-13
p1919
V73.0
p1920
sV2010-07-12
p1921
V72.7
p1922
sV2010-07-11
p1923
V72.1
p1924
sV2010-07-10
p1925
V71.1
p1926
sV2010-07-17
p1927
V76.3
p1928
sV2010-07-16
p1929
V75.2
p1930
sV2010-07-15
p1931
V74.3
p1932
sV2010-07-14
p1933
V73.8
p1934
sV2011-07-29
p1935
V74.3
p1936
sV2011-07-28
p1937
V74.8
p1938
sV2011-07-23
p1939
V75.2
p1940
sV2011-07-22
p1941
V74.7
p1942
sV2011-07-21
p1943
V74.5
p1944
sV2011-07-20
p1945
V74.3
p1946
sV2011-07-27
p1947
V73.6
p1948
sV2011-07-26
p1949
V74.5
p1950
sV2011-07-25
p1951
V73.9
p1952
sV2011-07-24
p1953
V74.3
p1954
sV2016-07-02
p1955
V
sV2016-07-03
p1956
V
sV2016-07-01
p1957
V
sV2016-07-06
p1958
V
sV2016-07-07
p1959
V
sV2016-07-04
p1960
V
sV2016-07-05
p1961
V
sV2016-07-08
p1962
V
sV2016-07-09
p1963
V
sV2017-09-27
p1964
V72.6
p1965
sV2017-09-26
p1966
V72.6
p1967
sV2017-09-24
p1968
V71.6
p1969
sV2012-06-30
p1970
V72.5
p1971
sV2017-09-22
p1972
V71.3
p1973
sV2014-10-31
p1974
V59.8
p1975
sV2014-10-30
p1976
V60.1
p1977
sV2017-09-29
p1978
V72.6
p1979
sV2017-09-28
p1980
V73.0
p1981
sV2015-08-08
p1982
V73.6
p1983
sV2015-08-09
p1984
V73.8
p1985
sV2015-08-04
p1986
V73.8
p1987
sV2015-08-05
p1988
V74.7
p1989
sV2015-08-06
p1990
V73.9
p1991
sV2015-08-07
p1992
V73.6
p1993
sV2015-08-01
p1994
V74.1
p1995
sV2015-08-02
p1996
V73.9
p1997
sV2015-08-03
p1998
V73.6
p1999
sV2013-08-31
p2000
V73.4
p2001
sV2013-08-30
p2002
V73.2
p2003
sV2017-08-31
p2004
V72.7
p2005
sV2010-08-05
p2006
V74.5
p2007
sV2010-08-04
p2008
V73.4
p2009
sV2010-08-07
p2010
V75.2
p2011
sV2010-08-06
p2012
V75.2
p2013
sV2010-08-01
p2014
V72.9
p2015
sV2010-08-03
p2016
V72.5
p2017
sV2010-08-02
p2018
V73.6
p2019
sV2010-08-09
p2020
V74.5
p2021
sV2010-08-08
p2022
V74.5
p2023
sV2009-09-28
p2024
V72.5
p2025
sV2009-09-29
p2026
V71.4
p2027
sV2009-09-22
p2028
V72.9
p2029
sV2009-09-23
p2030
V73.4
p2031
sV2009-09-20
p2032
V73.4
p2033
sV2009-09-21
p2034
V72.9
p2035
sV2009-09-26
p2036
V72.7
p2037
sV2009-09-27
p2038
V72.5
p2039
sV2009-09-24
p2040
V73.6
p2041
sV2009-09-25
p2042
V73.4
p2043
sV2015-06-13
p2044
V67.5
p2045
sV2015-06-12
p2046
V66.2
p2047
sV2014-07-26
p2048
V73.8
p2049
sV2011-09-29
p2050
V69.4
p2051
sV2011-09-28
p2052
V69.6
p2053
sV2011-09-21
p2054
V66.9
p2055
sV2011-09-20
p2056
V66.7
p2057
sV2011-09-23
p2058
V68.2
p2059
sV2011-09-22
p2060
V67.6
p2061
sV2011-09-25
p2062
V68.9
p2063
sV2011-09-24
p2064
V68.5
p2065
sV2011-09-27
p2066
V69.6
p2067
sV2011-09-26
p2068
V69.1
p2069
sV2008-08-02
p2070
V76.8
p2071
sV2015-06-19
p2072
V68.7
p2073
sV2017-10-09
p2074
V69.8
p2075
sV2008-08-01
p2076
V77.7
p2077
sV2008-08-06
p2078
V77.2
p2079
sV2008-08-07
p2080
V77.9
p2081
sV2008-08-04
p2082
V77.4
p2083
sV2015-06-18
p2084
V68.0
p2085
sV2017-10-03
p2086
V70.2
p2087
sV2017-10-02
p2088
V70.6
p2089
sV2008-08-08
p2090
V77.7
p2091
sV2008-08-09
p2092
V78.1
p2093
sV2017-10-07
p2094
V70.5
p2095
sV2017-10-06
p2096
V70.0
p2097
sV2017-10-05
p2098
V70.2
p2099
sV2017-10-04
p2100
V70.0
p2101
sV2016-09-17
p2102
V74.1
p2103
sV2014-06-14
p2104
V65.6
p2105
sV2014-06-15
p2106
V66.5
p2107
sV2014-06-16
p2108
V67.0
p2109
sV2014-06-17
p2110
V67.7
p2111
sV2014-06-10
p2112
V64.7
p2113
sV2014-06-11
p2114
V64.1
p2115
sV2014-06-12
p2116
V63.9
p2117
sV2014-06-13
p2118
V65.0
p2119
sV2016-06-12
p2120
V
sV2014-06-18
p2121
V68.1
p2122
sV2014-06-19
p2123
V68.0
p2124
sV2016-06-13
p2125
V
sV2008-07-10
p2126
V73.9
p2127
sV2008-07-11
p2128
V74.1
p2129
sV2008-07-12
p2130
V75.2
p2131
sV2008-07-13
p2132
V75.7
p2133
sV2008-07-14
p2134
V74.8
p2135
sV2008-07-15
p2136
V75.4
p2137
sV2008-07-16
p2138
V74.8
p2139
sV2008-07-17
p2140
V74.5
p2141
sV2008-07-18
p2142
V75.6
p2143
sV2008-07-19
p2144
V75.7
p2145
sV2014-05-19
p2146
V57.7
p2147
sV2014-05-18
p2148
V57.0
p2149
sV2014-05-11
p2150
V53.8
p2151
sV2014-05-10
p2152
V52.4
p2153
sV2014-05-13
p2154
V54.3
p2155
sV2014-05-12
p2156
V
sV2014-05-15
p2157
V54.7
p2158
sV2014-05-14
p2159
V54.6
p2160
sV2014-05-17
p2161
V57.3
p2162
sV2014-05-16
p2163
V54.8
p2164
sV2015-10-29
p2165
V60.3
p2166
sV2015-10-28
p2167
V59.5
p2168
sV2015-10-27
p2169
V60.1
p2170
sV2015-10-26
p2171
V60.6
p2172
sV2015-10-25
p2173
V61.0
p2174
sV2015-10-24
p2175
V61.0
p2176
sV2015-10-23
p2177
V61.5
p2178
sV2015-10-22
p2179
V61.5
p2180
sV2015-10-21
p2181
V61.5
p2182
sV2015-10-20
p2183
V
sV2012-08-29
p2184
V76.8
p2185
sV2012-08-28
p2186
V76.8
p2187
sV2012-08-21
p2188
V74.1
p2189
sV2008-08-20
p2190
V75.9
p2191
sV2012-08-23
p2192
V74.8
p2193
sV2012-08-22
p2194
V74.5
p2195
sV2012-08-25
p2196
V75.6
p2197
sV2012-08-24
p2198
V75.2
p2199
sV2012-08-27
p2200
V76.1
p2201
sV2008-08-21
p2202
V75.7
p2203
sV2016-08-10
p2204
V
sV2016-08-11
p2205
V
sV2016-08-12
p2206
V
sV2016-08-13
p2207
V
sV2016-08-14
p2208
V
sV2016-08-15
p2209
V
sV2016-08-16
p2210
V
sV2016-08-17
p2211
V
sV2016-08-18
p2212
V
sV2016-08-19
p2213
V
sV2016-09-18
p2214
V73.6
p2215
sV2016-07-11
p2216
V
sV2016-07-10
p2217
V
sV2016-07-13
p2218
V
sV2016-07-12
p2219
V
sV2016-07-15
p2220
V
sV2016-07-14
p2221
V
sV2016-07-17
p2222
V
sV2016-07-16
p2223
V
sV2016-07-19
p2224
V
sV2016-07-18
p2225
V
sV2012-06-29
p2226
V71.2
p2227
sV2012-06-28
p2228
V70.2
p2229
sV2012-06-23
p2230
V72.1
p2231
sV2012-06-22
p2232
V72.7
p2233
sV2012-06-21
p2234
V71.6
p2235
sV2012-06-20
p2236
V71.6
p2237
sV2012-06-27
p2238
V70.7
p2239
sV2012-06-26
p2240
V71.2
p2241
sV2012-06-25
p2242
V71.8
p2243
sV2012-06-24
p2244
V72.7
p2245
sV2014-10-01
p2246
V68.9
p2247
sV2014-10-02
p2248
V68.5
p2249
sV2014-10-03
p2250
V68.7
p2251
sV2014-10-04
p2252
V68.7
p2253
sV2014-10-05
p2254
V67.8
p2255
sV2014-10-06
p2256
V67.5
p2257
sV2014-10-07
p2258
V66.9
p2259
sV2014-10-08
p2260
V66.9
p2261
sV2014-10-09
p2262
V66.2
p2263
sV2014-07-05
p2264
V70.2
p2265
sV2015-08-13
p2266
V74.8
p2267
sV2015-08-12
p2268
V74.5
p2269
sV2015-08-11
p2270
V73.8
p2271
sV2015-08-10
p2272
V74.7
p2273
sV2015-08-17
p2274
V75.4
p2275
sV2015-08-16
p2276
V75.6
p2277
sV2015-08-15
p2278
V75.7
p2279
sV2015-08-14
p2280
V75.6
p2281
sV2015-08-19
p2282
V75.9
p2283
sV2015-08-18
p2284
V75.6
p2285
sV2012-05-03
p2286
V54.7
p2287
sV2013-09-18
p2288
V67.5
p2289
sV2013-09-19
p2290
V67.3
p2291
sV2013-09-12
p2292
V71.2
p2293
sV2013-09-13
p2294
V71.2
p2295
sV2013-09-10
p2296
V70.3
p2297
sV2013-09-11
p2298
V70.9
p2299
sV2013-09-16
p2300
V69.6
p2301
sV2013-09-17
p2302
V68.4
p2303
sV2013-09-14
p2304
V71.4
p2305
sV2013-09-15
p2306
V70.7
p2307
sV2014-09-08
p2308
V74.5
p2309
sV2014-09-09
p2310
V73.4
p2311
sV2014-09-06
p2312
V75.9
p2313
sV2014-09-07
p2314
V75.4
p2315
sV2014-09-04
p2316
V74.8
p2317
sV2014-09-05
p2318
V75.6
p2319
sV2014-09-02
p2320
V74.5
p2321
sV2014-09-03
p2322
V74.8
p2323
sV2014-09-01
p2324
V74.1
p2325
sV2015-07-18
p2326
V72.7
p2327
sV2015-07-19
p2328
V73.2
p2329
sV2015-07-16
p2330
V73.0
p2331
sV2015-07-17
p2332
V72.9
p2333
sV2015-07-14
p2334
V72.9
p2335
sV2015-07-15
p2336
V72.7
p2337
sV2015-07-12
p2338
V73.0
p2339
sV2015-07-13
p2340
V73.9
p2341
sV2015-07-10
p2342
V72.1
p2343
sV2015-07-11
p2344
V73.0
p2345
sV2009-09-30
p2346
V71.1
p2347
sV2011-09-18
p2348
V67.6
p2349
sV2011-09-19
p2350
V67.3
p2351
sV2011-09-14
p2352
V71.6
p2353
sV2011-09-15
p2354
V
sV2011-09-16
p2355
V69.3
p2356
sV2011-09-17
p2357
V69.1
p2358
sV2011-09-10
p2359
V70.7
p2360
sV2011-09-11
p2361
V70.5
p2362
sV2011-09-12
p2363
V70.9
p2364
sV2011-09-13
p2365
V71.4
p2366
sV2009-05-26
p2367
V62.6
p2368
sV2008-08-10
p2369
V78.1
p2370
sV2008-08-13
p2371
V76.6
p2372
sV2009-05-25
p2373
V63.3
p2374
sV2009-05-22
p2375
V62.4
p2376
sV2009-05-23
p2377
V62.4
p2378
sV2009-05-20
p2379
V61.9
p2380
sV2008-08-16
p2381
V76.5
p2382
sV2008-08-19
p2383
V76.5
p2384
sV2008-08-18
p2385
V76.5
p2386
sV2009-05-28
p2387
V63.1
p2388
sV2009-05-29
p2389
V64.0
p2390
sV2008-07-07
p2391
V71.6
p2392
sV2008-07-06
p2393
V70.9
p2394
sV2008-07-05
p2395
V71.1
p2396
sV2008-07-04
p2397
V71.4
p2398
sV2008-07-03
p2399
V72.0
p2400
sV2008-07-02
p2401
V71.8
p2402
sV2008-07-01
p2403
V72.0
p2404
sV2008-07-09
p2405
V73.2
p2406
sV2008-07-08
p2407
V72.5
p2408
sV2014-05-28
p2409
V60.2
p2410
sV2014-05-29
p2411
V60.4
p2412
sV2014-05-24
p2413
V58.8
p2414
sV2014-05-25
p2415
V59.9
p2416
sV2014-05-26
p2417
V61.6
p2418
sV2014-05-27
p2419
V61.5
p2420
sV2014-05-20
p2421
V57.2
p2422
sV2014-05-21
p2423
V57.6
p2424
sV2014-05-22
p2425
V57.8
p2426
sV2014-05-23
p2427
V59.0
p2428
sV2015-06-29
p2429
V68.0
p2430
sV2014-06-09
p2431
V64.5
p2432
sV2014-06-08
p2433
V65.4
p2434
sV2012-08-18
p2435
V75.2
p2436
sV2012-08-19
p2437
V74.3
p2438
sV2012-08-14
p2439
V77.2
p2440
sV2012-08-15
p2441
V76.1
p2442
sV2014-06-01
p2443
V62.6
p2444
sV2012-08-17
p2445
V75.6
p2446
sV2012-08-10
p2447
V77.5
p2448
sV2014-06-06
p2449
V62.8
p2450
sV2012-08-12
p2451
V79.0
p2452
sV2012-08-13
p2453
V77.7
p2454
sV2016-08-07
p2455
V
sV2012-07-28
p2456
V75.4
p2457
sV2016-08-05
p2458
V
sV2016-08-04
p2459
V
sV2016-08-03
p2460
V
sV2016-08-02
p2461
V
sV2016-08-01
p2462
V
sV2013-10-11
p2463
V66.0
p2464
sV2016-08-09
p2465
V
sV2016-08-08
p2466
V
sV2012-07-20
p2467
V72.1
p2468
sV2012-07-21
p2469
V72.1
p2470
sV2016-09-30
p2471
V70.3
p2472
sV2016-07-24
p2473
V
sV2016-07-25
p2474
V
sV2016-07-26
p2475
V
sV2016-07-27
p2476
V
sV2016-07-20
p2477
V
sV2016-07-21
p2478
V
sV2016-07-22
p2479
V
sV2016-07-23
p2480
V
sV2016-07-28
p2481
V
sV2016-07-29
p2482
V
sV2010-06-30
p2483
V72.3
p2484
sV2017-08-30
p2485
V72.3
p2486
sV2014-10-17
p2487
V65.8
p2488
sV2014-10-16
p2489
V65.3
p2490
sV2014-10-15
p2491
V65.3
p2492
sV2014-10-14
p2493
V64.6
p2494
sV2014-10-13
p2495
V64.2
p2496
sV2014-10-12
p2497
V64.6
p2498
sV2014-10-11
p2499
V64.9
p2500
sV2014-10-10
p2501
V65.7
p2502
sV2014-10-19
p2503
V64.4
p2504
sV2014-10-18
p2505
V65.5
p2506
sV2013-09-09
p2507
V70.0
p2508
sV2013-09-08
p2509
V70.9
p2510
sV2013-09-01
p2511
V73.9
p2512
sV2013-09-03
p2513
V73.6
p2514
sV2013-09-02
p2515
V73.4
p2516
sV2013-09-05
p2517
V72.9
p2518
sV2013-09-04
p2519
V73.2
p2520
sV2013-09-07
p2521
V70.9
p2522
sV2013-09-06
p2523
V72.0
p2524
sV2014-09-19
p2525
V71.1
p2526
sV2014-09-18
p2527
V71.6
p2528
sV2014-09-15
p2529
V71.8
p2530
sV2014-09-14
p2531
V72.3
p2532
sV2014-09-17
p2533
V71.2
p2534
sV2014-09-16
p2535
V71.6
p2536
sV2014-09-11
p2537
V72.9
p2538
sV2014-09-10
p2539
V73.2
p2540
sV2014-09-13
p2541
V72.1
p2542
sV2014-09-12
p2543
V73.0
p2544
sV2015-07-09
p2545
V71.8
p2546
sV2015-07-08
p2547
V71.2
p2548
sV2015-07-05
p2549
V70.2
p2550
sV2015-07-04
p2551
V69.6
p2552
sV2015-07-07
p2553
V71.1
p2554
sV2015-07-06
p2555
V71.2
p2556
sV2015-07-01
p2557
V69.6
p2558
sV2015-07-03
p2559
V70.9
p2560
sV2015-07-02
p2561
V70.0
p2562
sV2009-09-08
p2563
V76.5
p2564
sV2009-09-09
p2565
V76.3
p2566
sV2009-09-04
p2567
V76.8
p2568
sV2009-09-05
p2569
V77.4
p2570
sV2009-09-06
p2571
V76.9
p2572
sV2009-09-07
p2573
V76.8
p2574
sV2009-09-01
p2575
V76.6
p2576
sV2009-09-02
p2577
V76.6
p2578
sV2009-09-03
p2579
V76.7
p2580
sV2011-09-03
p2581
V72.1
p2582
sV2011-09-02
p2583
V73.4
p2584
sV2011-09-01
p2585
V73.8
p2586
sV2011-09-07
p2587
V71.2
p2588
sV2011-09-06
p2589
V72.7
p2590
sV2011-09-05
p2591
V72.3
p2592
sV2011-09-04
p2593
V72.5
p2594
sV2011-09-09
p2595
V70.7
p2596
sV2011-09-08
p2597
V71.2
p2598
sV2008-08-24
p2599
V75.9
p2600
sV2008-08-25
p2601
V76.3
p2602
sV2008-08-26
p2603
V76.8
p2604
sV2008-08-27
p2605
V76.6
p2606
sV2009-05-31
p2607
V64.9
p2608
sV2009-05-30
p2609
V64.6
p2610
sV2008-08-22
p2611
V76.3
p2612
sV2008-08-23
p2613
V76.3
p2614
sV2015-08-29
p2615
V76.3
p2616
sV2008-08-28
p2617
V76.1
p2618
sV2008-08-29
p2619
V75.9
p2620
sV2017-08-11
p2621
V73.6
p2622
sV2017-08-10
p2623
V73.6
p2624
sV2017-08-13
p2625
V73.9
p2626
sV2017-08-12
p2627
V73.4
p2628
sV2017-08-15
p2629
V73.8
p2630
sV2017-08-14
p2631
V74.5
p2632
sV2017-08-17
p2633
V74.8
p2634
sV2017-08-16
p2635
V74.3
p2636
sV2014-05-31
p2637
V61.0
p2638
sV2014-05-30
p2639
V61.2
p2640
sV2012-08-03
p2641
V76.8
p2642
sV2012-08-02
p2643
V76.1
p2644
sV2012-08-01
p2645
V75.2
p2646
sV2012-08-07
p2647
V77.9
p2648
sV2012-08-06
p2649
V77.9
p2650
sV2012-08-05
p2651
V77.9
p2652
sV2012-08-04
p2653
V77.7
p2654
sV2012-08-09
p2655
V77.5
p2656
sV2012-08-08
p2657
V77.9
p2658
sV2017-09-07
p2659
V70.9
p2660
sV2017-09-06
p2661
V71.1
p2662
sV2008-08-03
p2663
V77.4
p2664
sV2017-10-08
p2665
V69.7
p2666
sV2008-08-05
p2667
V77.7
p2668
sV2009-08-05
p2669
V78.4
p2670
sV2010-06-25
p2671
V72.0
p2672
sV2010-06-24
p2673
V71.6
p2674
sV2010-06-27
p2675
V72.0
p2676
sV2010-06-26
p2677
V72.3
p2678
sV2010-06-21
p2679
V69.4
p2680
sV2010-06-20
p2681
V68.2
p2682
sV2010-06-23
p2683
V71.1
p2684
sV2010-06-22
p2685
V71.2
p2686
sV2010-06-29
p2687
V73.0
p2688
sV2010-06-28
p2689
V71.6
p2690
sV2011-06-06
p2691
V61.3
p2692
sV2011-06-07
p2693
V62.1
p2694
sV2011-06-04
p2695
V62.8
p2696
sV2011-06-05
p2697
V61.7
p2698
sV2011-06-02
p2699
V65.1
p2700
sV2011-06-03
p2701
V64.4
p2702
sV2011-06-01
p2703
V64.6
p2704
sV2008-05-03
p2705
V55.2
p2706
sV2011-06-08
p2707
V62.8
p2708
sV2011-06-09
p2709
V63.5
p2710
sV2008-05-02
p2711
V55.6
p2712
sV2015-08-24
p2713
V76.3
p2714
sV2008-05-05
p2715
V56.5
p2716
sV2009-08-08
p2717
V76.3
p2718
sV2013-09-30
p2719
V66.6
p2720
sV2008-05-04
p2721
V55.8
p2722
sV2014-09-20
p2723
V70.7
p2724
sV2014-09-21
p2725
V70.9
p2726
sV2014-09-22
p2727
V70.7
p2728
sV2014-09-23
p2729
V70.3
p2730
sV2014-09-24
p2731
V69.8
p2732
sV2008-05-07
p2733
V57.6
p2734
sV2014-09-26
p2735
V68.9
p2736
sV2014-09-27
p2737
V69.1
p2738
sV2014-09-28
p2739
V69.3
p2740
sV2014-09-29
p2741
V69.3
p2742
sV2008-05-06
p2743
V57.0
p2744
sV2008-05-09
p2745
V57.7
p2746
sV2008-05-08
p2747
V58.1
p2748
sV2016-07-31
p2749
V
sV2016-07-30
p2750
V
sV2011-05-30
p2751
V64.8
p2752
sV2011-05-31
p2753
V64.8
p2754
sV2015-07-30
p2755
V73.9
p2756
sV2015-07-31
p2757
V74.1
p2758
sV2017-07-29
p2759
V74.8
p2760
sV2017-07-28
p2761
V75.0
p2762
sV2017-07-25
p2763
V74.3
p2764
sV2017-07-24
p2765
V74.7
p2766
sV2017-07-27
p2767
V74.5
p2768
sV2017-07-26
p2769
V74.7
p2770
sV2017-07-21
p2771
V77.0
p2772
sV2017-07-20
p2773
V76.6
p2774
sV2017-07-23
p2775
V76.1
p2776
sV2017-07-22
p2777
V76.8
p2778
sV2009-10-08
p2779
V67.8
p2780
sV2009-10-09
p2781
V66.9
p2782
sV2009-10-06
p2783
V68.5
p2784
sV2009-10-07
p2785
V68.0
p2786
sV2009-10-04
p2787
V69.4
p2788
sV2009-10-05
p2789
V68.9
p2790
sV2009-10-02
p2791
V69.2
p2792
sV2009-10-03
p2793
V68.9
p2794
sV2009-10-01
p2795
V69.8
p2796
sV2008-09-18
p2797
V73.7
p2798
sV2008-09-19
p2799
V72.9
p2800
sV2009-09-13
p2801
V74.7
p2802
sV2009-09-12
p2803
V74.6
p2804
sV2009-09-11
p2805
V74.8
p2806
sV2009-09-10
p2807
V75.7
p2808
sV2009-09-17
p2809
V73.8
p2810
sV2009-09-16
p2811
V74.5
p2812
sV2009-09-15
p2813
V74.9
p2814
sV2009-09-14
p2815
V74.8
p2816
sV2009-09-19
p2817
V73.6
p2818
sV2009-09-18
p2819
V
sV2008-09-14
p2820
V75.2
p2821
sV2008-09-15
p2822
V75.2
p2823
sV2008-09-12
p2824
V74.8
p2825
sV2014-07-23
p2826
V74.8
p2827
sV2008-09-10
p2828
V77.0
p2829
sV2008-09-11
p2830
V76.3
p2831
sV2009-05-08
p2832
V59.0
p2833
sV2009-05-09
p2834
V59.4
p2835
sV2009-05-01
p2836
V56.5
p2837
sV2008-08-31
p2838
V76.5
p2839
sV2008-08-30
p2840
V76.3
p2841
sV2009-05-04
p2842
V57.6
p2843
sV2009-05-05
p2844
V57.2
p2845
sV2009-05-06
p2846
V58.3
p2847
sV2009-05-07
p2848
V58.1
p2849
sV2009-06-05
p2850
V65.5
p2851
sV2009-06-18
p2852
V69.4
p2853
sV2009-06-19
p2854
V70.2
p2855
sV2009-06-16
p2856
V69.1
p2857
sV2009-06-17
p2858
V69.1
p2859
sV2009-06-14
p2860
V68.4
p2861
sV2009-06-15
p2862
V68.9
p2863
sV2009-06-12
p2864
V67.3
p2865
sV2009-06-13
p2866
V68.4
p2867
sV2009-06-10
p2868
V66.9
p2869
sV2009-06-11
p2870
V66.9
p2871
sV2015-05-30
p2872
V62.6
p2873
sV2015-05-31
p2874
V61.2
p2875
sV2009-10-28
p2876
V61.5
p2877
sV2009-10-29
p2878
V61.7
p2879
sV2009-06-07
p2880
V66.7
p2881
sV2017-08-20
p2882
V75.7
p2883
sV2017-08-21
p2884
V76.1
p2885
sV2017-07-31
p2886
V74.3
p2887
sV2010-06-18
p2888
V67.6
p2889
sV2010-06-19
p2890
V67.5
p2891
sV2010-06-10
p2892
V64.8
p2893
sV2010-06-11
p2894
V64.4
p2895
sV2010-06-12
p2896
V64.4
p2897
sV2010-06-13
p2898
V64.9
p2899
sV2010-06-14
p2900
V64.6
p2901
sV2010-06-15
p2902
V65.1
p2903
sV2010-06-16
p2904
V65.8
p2905
sV2010-06-17
p2906
V66.7
p2907
sV2016-09-28
p2908
V72.5
p2909
sV2016-09-29
p2910
V71.2
p2911
sV2016-09-22
p2912
V73.9
p2913
sV2016-09-23
p2914
V74.5
p2915
sV2016-09-20
p2916
V73.6
p2917
sV2016-09-21
p2918
V73.9
p2919
sV2016-09-26
p2920
V73.2
p2921
sV2016-09-27
p2922
V73.0
p2923
sV2016-09-24
p2924
V74.1
p2925
sV2016-09-25
p2926
V73.8
p2927
sV2011-06-15
p2928
V66.6
p2929
sV2011-06-14
p2930
V65.7
p2931
sV2011-06-17
p2932
V67.6
p2933
sV2011-06-16
p2934
V67.8
p2935
sV2011-06-11
p2936
V66.0
p2937
sV2011-06-10
p2938
V64.6
p2939
sV2011-06-13
p2940
V65.8
p2941
sV2011-06-12
p2942
V64.8
p2943
sV2011-06-19
p2944
V68.4
p2945
sV2011-06-18
p2946
V68.0
p2947
sV2013-09-23
p2948
V67.3
p2949
sV2013-09-22
p2950
V67.3
p2951
sV2013-09-21
p2952
V67.1
p2953
sV2013-09-20
p2954
V67.8
p2955
sV2013-09-27
p2956
V66.2
p2957
sV2013-09-26
p2958
V66.2
p2959
sV2013-09-25
p2960
V66.2
p2961
sV2013-09-24
p2962
V66.6
p2963
sV2013-09-29
p2964
V67.1
p2965
sV2013-09-28
p2966
V65.8
p2967
sV2014-09-30
p2968
V69.1
p2969
sV2011-05-29
p2970
V63.1
p2971
sV2011-05-28
p2972
V63.5
p2973
sV2011-05-25
p2974
V60.3
p2975
sV2011-05-24
p2976
V59.9
p2977
sV2011-05-27
p2978
V62.8
p2979
sV2011-05-26
p2980
V61.3
p2981
sV2011-05-21
p2982
V59.7
p2983
sV2011-05-20
p2984
V58.6
p2985
sV2011-05-23
p2986
V59.7
p2987
sV2011-05-22
p2988
V59.9
p2989
sV2015-07-27
p2990
V73.4
p2991
sV2015-07-26
p2992
V73.0
p2993
sV2015-07-25
p2994
V73.2
p2995
sV2015-07-24
p2996
V72.5
p2997
sV2015-07-23
p2998
V73.0
p2999
sV2015-07-22
p3000
V73.9
p3001
sV2015-07-21
p3002
V73.8
p3003
sV2015-07-20
p3004
V74.3
p3005
sV2017-07-18
p3006
V73.9
p3007
sV2017-06-08
p3008
V62.2
p3009
sV2015-07-29
p3010
V74.7
p3011
sV2015-07-28
p3012
V75.0
p3013
sV2009-10-19
p3014
V60.8
p3015
sV2009-10-18
p3016
V61.2
p3017
sV2009-10-15
p3018
V64.6
p3019
sV2009-10-14
p3020
V65.5
p3021
sV2009-10-17
p3022
V62.1
p3023
sV2009-10-16
p3024
V63.0
p3025
sV2009-10-11
p3026
V66.9
p3027
sV2009-10-10
p3028
V67.1
p3029
sV2009-10-13
p3030
V66.4
p3031
sV2009-10-12
p3032
V66.4
p3033
sV2017-06-02
p3034
V61.9
p3035
sV2017-06-03
p3036
V63.0
p3037
sV2009-05-19
p3038
V61.0
p3039
sV2009-05-18
p3040
V60.3
p3041
sV2009-05-17
p3042
V60.3
p3043
sV2009-05-16
p3044
V60.4
p3045
sV2009-05-15
p3046
V60.4
p3047
sV2009-05-14
p3048
V59.9
p3049
sV2009-05-13
p3050
V60.8
p3051
sV2009-05-12
p3052
V60.3
p3053
sV2009-05-11
p3054
V60.1
p3055
sV2009-05-10
p3056
V60.3
p3057
sV2008-06-28
p3058
V70.0
p3059
sV2008-06-29
p3060
V71.2
p3061
sV2009-06-09
p3062
V66.7
p3063
sV2009-06-08
p3064
V66.9
p3065
sV2008-06-22
p3066
V69.3
p3067
sV2009-06-04
p3068
V66.4
p3069
sV2008-06-20
p3070
V69.4
p3071
sV2008-06-21
p3072
V69.8
p3073
sV2008-06-26
p3074
V69.6
p3075
sV2008-06-27
p3076
V69.8
p3077
sV2009-06-03
p3078
V66.7
p3079
sV2008-06-25
p3080
V70.2
p3081
sV2013-05-16
p3082
V57.0
p3083
sV2015-05-28
p3084
V62.6
p3085
sV2013-05-14
p3086
V58.5
p3087
sV2013-05-15
p3088
V57.4
p3089
sV2013-05-12
p3090
V58.6
p3091
sV2013-05-13
p3092
V59.0
p3093
sV2013-05-10
p3094
V58.3
p3095
sV2013-05-11
p3096
V58.5
p3097
sV2015-05-21
p3098
V58.3
p3099
sV2015-05-20
p3100
V58.5
p3101
sV2015-05-23
p3102
V58.6
p3103
sV2015-05-22
p3104
V59.0
p3105
sV2015-05-25
p3106
V59.0
p3107
sV2015-05-24
p3108
V58.6
p3109
sV2015-05-27
p3110
V61.3
p3111
sV2015-05-26
p3112
V59.2
p3113
sV2008-11-01
p3114
V59.7
p3115
sV2012-08-20
p3116
V73.9
p3117
sV2015-11-01
p3118
V58.8
p3119
sV2012-08-26
p3120
V75.9
p3121
sV2017-09-23
p3122
V71.2
p3123
sV2014-09-25
p3124
V69.1
p3125
sV2010-06-09
p3126
V65.8
p3127
sV2010-06-08
p3128
V67.5
p3129
sV2010-06-07
p3130
V68.2
p3131
sV2010-06-06
p3132
V69.1
p3133
sV2010-06-05
p3134
V66.2
p3135
sV2010-06-04
p3136
V66.6
p3137
sV2010-06-03
p3138
V65.3
p3139
sV2010-06-02
p3140
V65.5
p3141
sV2010-06-01
p3142
V66.6
p3143
sV2013-05-01
p3144
V52.3
p3145
sV2013-05-09
p3146
V56.8
p3147
sV2013-05-08
p3148
V56.7
p3149
sV2016-05-26
p3150
V
sV2016-05-27
p3151
V
sV2016-05-24
p3152
V
sV2016-05-25
p3153
V
sV2016-05-22
p3154
V
sV2016-05-23
p3155
V
sV2016-05-20
p3156
V
sV2016-05-21
p3157
V
sV2017-08-19
p3158
V75.7
p3159
sV2017-08-18
p3160
V74.8
p3161
sV2016-05-28
p3162
V
sV2016-05-29
p3163
V
sV2014-08-18
p3164
V73.2
p3165
sV2014-08-19
p3166
V73.2
p3167
sV2014-08-12
p3168
V73.6
p3169
sV2014-08-13
p3170
V73.6
p3171
sV2014-08-10
p3172
V74.1
p3173
sV2014-08-11
p3174
V74.8
p3175
sV2014-08-16
p3176
V73.4
p3177
sV2014-08-17
p3178
V73.2
p3179
sV2014-08-14
p3180
V73.6
p3181
sV2014-08-15
p3182
V73.9
p3183
sV2011-05-10
p3184
V52.0
p3185
sV2011-05-11
p3186
V52.3
p3187
sV2011-05-12
p3188
V54.1
p3189
sV2011-05-13
p3190
V54.9
p3191
sV2011-05-14
p3192
V55.0
p3193
sV2011-05-15
p3194
V55.0
p3195
sV2011-05-16
p3196
V55.4
p3197
sV2011-05-17
p3198
V55.9
p3199
sV2011-05-18
p3200
V57.2
p3201
sV2011-05-19
p3202
V58.1
p3203
sV2017-07-07
p3204
V68.7
p3205
sV2017-07-06
p3206
V69.1
p3207
sV2017-07-05
p3208
V70.0
p3209
sV2017-07-04
p3210
V70.3
p3211
sV2017-07-03
p3212
V71.4
p3213
sV2017-07-02
p3214
V68.0
p3215
sV2017-07-01
p3216
V68.7
p3217
sV2017-07-09
p3218
V70.2
p3219
sV2017-07-08
p3220
V69.1
p3221
sV2011-06-28
p3222
V72.3
p3223
sV2011-06-29
p3224
V72.9
p3225
sV2009-10-22
p3226
V60.7
p3227
sV2009-10-23
p3228
V60.8
p3229
sV2009-10-24
p3230
V61.2
p3231
sV2009-10-25
p3232
V61.3
p3233
sV2009-10-26
p3234
V61.3
p3235
sV2009-10-27
p3236
V61.5
p3237
sV2011-06-20
p3238
V69.4
p3239
sV2011-06-21
p3240
V69.3
p3241
sV2011-06-22
p3242
V69.4
p3243
sV2011-06-23
p3244
V69.4
p3245
sV2011-06-24
p3246
V69.1
p3247
sV2011-06-25
p3248
V69.4
p3249
sV2011-06-26
p3250
V71.1
p3251
sV2011-06-27
p3252
V70.9
p3253
sV2011-10-12
p3254
V65.7
p3255
sV2011-10-13
p3256
V65.7
p3257
sV2011-10-10
p3258
V66.4
p3259
sV2011-10-11
p3260
V66.6
p3261
sV2011-10-16
p3262
V64.4
p3263
sV2011-10-17
p3264
V64.4
p3265
sV2011-10-14
p3266
V65.8
p3267
sV2011-10-15
p3268
V65.1
p3269
sV2011-10-18
p3270
V63.7
p3271
sV2011-10-19
p3272
V62.6
p3273
sV2016-10-16
p3274
V64.8
p3275
sV2013-10-30
p3276
V58.5
p3277
sV2013-10-31
p3278
V58.5
p3279
sV2012-07-06
p3280
V72.7
p3281
sV2012-07-07
p3282
V73.4
p3283
sV2012-07-04
p3284
V72.5
p3285
sV2012-07-05
p3286
V72.5
p3287
sV2012-07-02
p3288
V71.6
p3289
sV2012-07-03
p3290
V71.8
p3291
sV2012-07-01
p3292
V71.8
p3293
sV2012-07-08
p3294
V74.3
p3295
sV2012-07-09
p3296
V74.5
p3297
sV2009-06-30
p3298
V72.5
p3299
sV2008-06-30
p3300
V72.0
p3301
sV2013-05-05
p3302
V55.8
p3303
sV2013-05-04
p3304
V55.2
p3305
sV2013-05-07
p3306
V56.8
p3307
sV2013-05-06
p3308
V56.5
p3309
sV2015-05-18
p3310
V57.7
p3311
sV2015-05-19
p3312
V58.1
p3313
sV2013-05-03
p3314
V53.6
p3315
sV2013-05-02
p3316
V53.1
p3317
sV2015-05-14
p3318
V58.6
p3319
sV2015-05-15
p3320
V58.1
p3321
sV2015-05-16
p3322
V57.6
p3323
sV2015-05-17
p3324
V58.1
p3325
sV2015-05-10
p3326
V54.7
p3327
sV2015-05-11
p3328
V55.6
p3329
sV2015-05-12
p3330
V56.7
p3331
sV2015-05-13
p3332
V57.6
p3333
sV2013-06-28
p3334
V69.8
p3335
sV2013-06-29
p3336
V70.5
p3337
sV2013-06-26
p3338
V68.9
p3339
sV2013-06-27
p3340
V69.6
p3341
sV2013-06-24
p3342
V69.4
p3343
sV2013-06-25
p3344
V69.4
p3345
sV2013-06-22
p3346
V68.0
p3347
sV2013-06-23
p3348
V68.5
p3349
sV2013-06-20
p3350
V66.7
p3351
sV2013-06-21
p3352
V67.6
p3353
s.